(dp0
S'superman'
p1
I3661
sS'widow'
p2
I3922
sS'hatr'
p3
I1216
sS'bear'
p4
I3351
sS'yellow'
p5
I4806
sS'four'
p6
I979
sS'protest'
p7
I3296
sS'sleep'
p8
I2693
sS'asian'
p9
I2606
sS'mansion'
p10
I2243
sS'climb'
p11
I3322
sS'captain'
p12
I1342
sS'hate'
p13
I991
sS'forget'
p14
I656
sS'whose'
p15
I512
sS'accus'
p16
I198
sS'accur'
p17
I1403
sS'sorri'
p18
I1370
sS'edward'
p19
I1635
sS'buddi'
p20
I2418
sS'woodi'
p21
I5307
sS'lord'
p22
I1182
sS'pride'
p23
I4247
sS'boll'
p24
I14443
sS'worth'
p25
I284
sS'digit'
p26
I3454
sS'lack'
p27
I2014
sS'everi'
p28
I121
sS'risk'
p29
I1386
sS'appal'
p30
I3887
sS'rise'
p31
I1717
sS'lurk'
p32
I835
sS'voic'
p33
I551
sS'distort'
p34
I3850
sS'stolen'
p35
I2379
sS'jack'
p36
I1274
sS'delv'
p37
I1426
sS'affect'
p38
I360
sS'ala'
p39
I1148
sS'vast'
p40
I3037
sS'whoopi'
p41
I5581
sS'school'
p42
I8
sS'traumat'
p43
I5197
sS'prize'
p44
I2066
sS'wooden'
p45
I4244
sS'showcas'
p46
I3236
sS'funnier'
p47
I3803
sS'defens'
p48
I2760
sS'samurai'
p49
I5993
sS'disc'
p50
I3098
sS'errol'
p51
I5892
sS'wholli'
p52
I1782
sS'jennif'
p53
I2660
sS'triumph'
p54
I2033
sS'iran'
p55
I4298
sS'enjoy'
p56
I361
sS'chew'
p57
I2717
sS'speci'
p58
I2767
sS'miller'
p59
I1131
sS'naiv'
p60
I1855
sS'bacon'
p61
I4358
sS'direct'
p62
I103
sS'histor'
p63
I1320
sS'nail'
p64
I3478
sS'consequ'
p65
I2973
sS'second'
p66
I189
sS'street'
p67
I62
sS'streep'
p68
I3818
sS'kidnap'
p69
I1881
sS'virgin'
p70
I4108
sS'even'
p71
I352
sS'aim'
p72
I2948
sS'dialogu'
p73
I1452
sS'kolchak'
p74
I5791
sS'hide'
p75
I401
sS'christ'
p76
I2865
sS'wreck'
p77
I1479
sS'ruthless'
p78
I968
sS'amus'
p79
I326
sS'asid'
p80
I1453
sS'weren'
p81
I3937
sS'poison'
p82
I2334
sS'sung'
p83
I4041
sS'recognis'
p84
I4736
sS'ain'
p85
I3441
sS'filmmak'
p86
I1100
sS'streisand'
p87
I5379
sS'conduct'
p88
I4410
sS'new'
p89
I306
sS'ever'
p90
I185
sS'liberti'
p91
I1671
sS'told'
p92
I731
sS'afterward'
p93
I1640
sS'intellectu'
p94
I2993
sS'hero'
p95
I1005
sS'behavior'
p96
I3041
sS'mel'
p97
I101
sS'never'
p98
I59
sS'drew'
p99
I4333
sS'argu'
p100
I4310
sS'met'
p101
I783
sS'porno'
p102
I4414
sS'china'
p103
I1655
sS'pursuit'
p104
I3811
sS'cult'
p105
I567
sS'path'
p106
I1616
sS'pleasur'
p107
I1847
sS'interpret'
p108
I2255
sS'daughter'
p109
I1510
sS'eugen'
p110
I4747
sS'announc'
p111
I2930
sS'militari'
p112
I2016
sS'anymor'
p113
I2568
sS'jail'
p114
I3874
sS'everyon'
p115
I725
sS'dri'
p116
I1447
sS'jame'
p117
I1189
sS'saint'
p118
I2510
sS'smoke'
p119
I901
sS'zombi'
p120
I4497
sS'studi'
p121
I1864
sS'jami'
p122
I942
sS'fell'
p123
I3174
sS'theori'
p124
I2484
sS'tremend'
p125
I3499
sS'golden'
p126
I2862
sS'aveng'
p127
I3667
sS'imposs'
p128
I1288
sS'campaign'
p129
I2735
sS'newspap'
p130
I1606
sS'stink'
p131
I156
sS'julia'
p132
I2697
sS'mitchel'
p133
I3129
sS'brought'
p134
I1372
sS'invas'
p135
I3870
sS'attitud'
p136
I2560
sS'moral'
p137
I1679
sS'eastwood'
p138
I2616
sS'spooki'
p139
I2566
sS'total'
p140
I1247
sS'unit'
p141
I2001
sS'sarah'
p142
I4917
sS'plot'
p143
I154
sS'describ'
p144
I1589
sS'subtleti'
p145
I2327
sS'princess'
p146
I1461
sS'plod'
p147
I874
sS'foster'
p148
I3288
sS'call'
p149
I686
sS'calm'
p150
I3556
sS'giallo'
p151
I5537
sS'recommend'
p152
I616
sS'strike'
p153
I1499
sS'torment'
p154
I4505
sS'preview'
p155
I737
sS'type'
p156
I916
sS'tell'
p157
I684
sS'relax'
p158
I2801
sS'oscar'
p159
I884
sS'relat'
p160
I839
sS'mutant'
p161
I4692
sS'notic'
p162
I353
sS'hurt'
p163
I2199
sS'warn'
p164
I1080
sS'phone'
p165
I852
sS'berlin'
p166
I4439
sS'warm'
p167
I1835
sS'grandfath'
p168
I4089
sS'adult'
p169
I47
sS'holi'
p170
I3628
sS'smile'
p171
I2432
sS'yard'
p172
I6019
sS'hole'
p173
I814
sS'hold'
p174
I1527
sS'phoni'
p175
I3825
sS'must'
p176
I322
sS'shoot'
p177
I558
sS'accid'
p178
I2730
sS'springer'
p179
I8491
sS'word'
p180
I205
sS'room'
p181
I283
sS'jess'
p182
I431
sS'hideous'
p183
I4516
sS'work'
p184
I67
sS'worm'
p185
I3446
sS'worn'
p186
I1547
sS'wors'
p187
I2380
sS'norm'
p188
I485
sS'root'
p189
I2613
sS'incompet'
p190
I3944
sS'wang'
p191
I1897
sS'climat'
p192
I2050
sS'give'
p193
I175
sS'pie'
p194
I3642
sS'climax'
p195
I775
sS'captiv'
p196
I392
sS'india'
p197
I2266
sS'lure'
p198
I3552
sS'exquisit'
p199
I2300
sS'frighten'
p200
I2961
sS'liter'
p201
I851
sS'walsh'
p202
I3559
sS'british'
p203
I2239
sS'want'
p204
I115
sS'basebal'
p205
I3663
sS'david'
p206
I947
sS'attract'
p207
I3343
sS'recov'
p208
I3201
sS'end'
p209
I85
sS'turn'
p210
I640
sS'polic'
p211
I1003
sS'travel'
p212
I1500
sS'fals'
p213
I774
sS'hot'
p214
I1312
sS'morbid'
p215
I1020
sS'hop'
p216
I3542
sS'answer'
p217
I1263
sS'disappoint'
p218
I738
sS'perspect'
p219
I334
sS'confid'
p220
I1438
sS'fever'
p221
I2962
sS'recogn'
p222
I2268
sS'elizabeth'
p223
I1484
sS'miik'
p224
I2551
sS'mess'
p225
I2041
sS'chines'
p226
I1875
sS'earlier'
p227
I1623
sS'vicious'
p228
I3847
sS'lab'
p229
I5559
sS'befor'
p230
I136
sS'wrong'
p231
I892
sS'teenag'
p232
I1469
sS'lay'
p233
I374
sS'beauti'
p234
I1133
sS'retain'
p235
I3717
sS'law'
p236
I3032
sS'lesbian'
p237
I1846
sS'demonstr'
p238
I1269
sS'shirt'
p239
I3122
sS'wrestl'
p240
I5283
sS'falk'
p241
I9456
sS'principl'
p242
I3866
sS'attempt'
p243
I311
sS'splendid'
p244
I1960
sS'third'
p245
I332
sS'dealer'
p246
I3879
sS'minim'
p247
I5170
sS'revolt'
p248
I6736
sS'revolv'
p249
I2346
sS'think'
p250
I49
sS'receiv'
p251
I1607
sS'maintain'
p252
I2442
sS'environ'
p253
I1955
sS'footag'
p254
I1563
sS'incorpor'
p255
I4800
sS'enter'
p256
I883
sS'exclus'
p257
I1857
sS'worst'
p258
I1160
sS'order'
p259
I1098
sS'wind'
p260
I1226
sS'factori'
p261
I6574
sS'blind'
p262
I423
sS'composit'
p263
I1633
sS'despit'
p264
I547
sS'soderbergh'
p265
I8614
sS'glover'
p266
I5242
sS'offici'
p267
I405
sS'govern'
p268
I2201
sS'orang'
p269
I2605
sS'becaus'
p270
I618
sS'murray'
p271
I5859
sS'bunni'
p272
I4775
sS'frankenstein'
p273
I166
sS'modesti'
p274
I5676
sS'london'
p275
I2180
sS'incid'
p276
I2467
sS'appar'
p277
I843
sS'japan'
p278
I2045
sS'hook'
p279
I2332
sS'mayor'
p280
I2356
sS'gentl'
p281
I2073
sS'fit'
p282
I2097
sS'del'
p283
I1078
sS'fix'
p284
I776
sS'christoph'
p285
I2541
sS'hypnot'
p286
I799
sS'crew'
p287
I1421
sS'better'
p288
I224
sS'spoken'
p289
I3074
sS'offic'
p290
I1004
sS'strand'
p291
I3731
sS'fade'
p292
I772
sS'hidden'
p293
I3465
sS'easier'
p294
I3414
sS'descend'
p295
I5631
sS'versus'
p296
I2612
sS'anim'
p297
I1929
sS'tourist'
p298
I3876
sS'gerard'
p299
I4592
sS'promin'
p300
I1824
sS'safe'
p301
I1413
sS'disturb'
p302
I495
sS'kumar'
p303
I7636
sS'break'
p304
I1218
sS'band'
p305
I2416
sS'bang'
p306
I3048
sS'promis'
p307
I1899
sS'interrupt'
p308
I3053
sS'resourc'
p309
I4525
sS'downright'
p310
I1844
sS'rental'
p311
I1818
sS'silver'
p312
I3995
sS'bank'
p313
I3727
sS'counter'
p314
I3873
sS'choic'
p315
I857
sS'tendenc'
p316
I2035
sS'alex'
p317
I3963
sS'meat'
p318
I3455
sS'arrog'
p319
I1540
sS'debut'
p320
I2444
sS'chuck'
p321
I2949
sS'luca'
p322
I3975
sS'arrow'
p323
I4019
sS'went'
p324
I1430
sS'european'
p325
I1689
sS'oblig'
p326
I4049
sS'side'
p327
I162
sS'bone'
p328
I2596
sS'luck'
p329
I1330
sS'armi'
p330
I2952
sS'diana'
p331
I1462
sS'colleagu'
p332
I2464
sS'enorm'
p333
I3312
sS'spider'
p334
I3668
sS'oppos'
p335
I2049
sS'kirk'
p336
I4838
sS'taught'
p337
I3511
sS'gandhi'
p338
I11236
sS'forgot'
p339
I1414
sS'dawn'
p340
I3778
sS'despis'
p341
I5222
sS'saturday'
p342
I340
sS'whip'
p343
I3789
sS'incomprehens'
p344
I3888
sS'depress'
p345
I2010
sS'network'
p346
I3856
sS'goe'
p347
I723
sS'god'
p348
I555
sS'newli'
p349
I2655
sS'crucial'
p350
I1784
sS'content'
p351
I751
sS'method'
p352
I3524
sS'palac'
p353
I2547
sS'daniel'
p354
I1820
sS'pool'
p355
I2523
sS'adapt'
p356
I1408
sS'reader'
p357
I2233
sS'got'
p358
I134
sS'unimagin'
p359
I4714
sS'forth'
p360
I1789
sS'forti'
p361
I950
sS'gate'
p362
I1272
sS'worthwhil'
p363
I1205
sS'dracula'
p364
I4356
sS'nightmar'
p365
I711
sS'situat'
p366
I30
sS'sheer'
p367
I3349
sS'free'
p368
I914
sS'standard'
p369
I1207
sS'redempt'
p370
I2622
sS'rain'
p371
I4425
sS'mistress'
p372
I3345
sS'pretend'
p373
I2904
sS'christma'
p374
I3641
sS'lousi'
p375
I1023
sS'sunshin'
p376
I603
sS'puzzl'
p377
I2991
sS'maniac'
p378
I3375
sS'angl'
p379
I357
sS'ritual'
p380
I3841
sS'flawless'
p381
I1524
sS'heck'
p382
I4266
sS'isn'
p383
I53
sS'startl'
p384
I2557
sS'fought'
p385
I4033
sS'kingdom'
p386
I2002
sS'bike'
p387
I4467
sS'subtl'
p388
I2122
sS'onto'
p389
I367
sS'bite'
p390
I2625
sS'stewart'
p391
I1339
sS'fantasi'
p392
I1393
sS'rang'
p393
I1584
sS'duval'
p394
I5926
sS'render'
p395
I2036
sS'psychic'
p396
I5349
sS'grade'
p397
I2446
sS'brazil'
p398
I4113
sS'independ'
p399
I2691
sS'wast'
p400
I762
sS'rank'
p401
I1411
sS'restrict'
p402
I3212
sS'wash'
p403
I1012
sS'unlik'
p404
I236
sS'alreadi'
p405
I143
sS'wasn'
p406
I152
sS'comic'
p407
I714
sS'agre'
p408
I1179
sS'fantast'
p409
I210
sS'primari'
p410
I2765
sS'hood'
p411
I3951
sS'toy'
p412
I995
sS'nomin'
p413
I610
sS'top'
p414
I724
sS'sometim'
p415
I871
sS'fiction'
p416
I1326
sS'timothi'
p417
I4843
sS'master'
p418
I1184
sS'overact'
p419
I2932
sS'tom'
p420
I1119
sS'hollywood'
p421
I627
sS'john'
p422
I473
sS'bitter'
p423
I2585
sS'listen'
p424
I393
sS'gordon'
p425
I2751
sS'urban'
p426
I1775
sS'murder'
p427
I1014
sS'fido'
p428
I14781
sS'ladder'
p429
I3330
sS'ted'
p430
I5064
sS'tool'
p431
I2388
sS'albert'
p432
I3745
sS'took'
p433
I1632
sS'wisdom'
p434
I3635
sS'obnoxi'
p435
I4946
sS'western'
p436
I1905
sS'somewhat'
p437
I743
sS'conserv'
p438
I3924
sS'happili'
p439
I3052
sS'horn'
p440
I6558
sS'crawl'
p441
I1735
sS'technic'
p442
I1683
sS'hallucin'
p443
I5179
sS'spoiler'
p444
I1827
sS'trek'
p445
I2829
sS'peril'
p446
I3500
sS'silli'
p447
I1475
sS'romp'
p448
I2411
sS'provid'
p449
I1687
sS'coward'
p450
I4841
sS'older'
p451
I1772
sS'tree'
p452
I2453
sS'rate'
p453
I276
sS'hilari'
p454
I2567
sS'project'
p455
I117
sS'matter'
p456
I69
sS'guilt'
p457
I3613
sS'cabin'
p458
I3729
sS'iron'
p459
I1794
sS'mst'
p460
I3131
sS'minut'
p461
I729
sS'minus'
p462
I4277
sS'screenplay'
p463
I524
sS'mini'
p464
I2350
sS'fashion'
p465
I530
sS'corni'
p466
I2125
sS'ran'
p467
I5
sS'modern'
p468
I675
sS'mind'
p469
I599
sS'mine'
p470
I869
sS'ginger'
p471
I4977
sS'drip'
p472
I2742
sS'raw'
p473
I2639
sS'rat'
p474
I4307
sS'seed'
p475
I509
sS'manner'
p476
I838
sS'rap'
p477
I5248
sS'edgi'
p478
I5169
sS'seen'
p479
I186
sS'seem'
p480
I358
sS'seek'
p481
I695
sS'dozen'
p482
I2906
sS'ponder'
p483
I4072
sS'strength'
p484
I641
sS'realm'
p485
I677
sS'recreat'
p486
I1656
sS'terrif'
p487
I826
sS'unpleas'
p488
I3883
sS'latter'
p489
I2270
sS'cope'
p490
I4129
sS'snow'
p491
I4656
sS'thorough'
p492
I1240
sS'casual'
p493
I2958
sS'chest'
p494
I3275
sS'funer'
p495
I4239
sS'chess'
p496
I5219
sS'hum'
p497
I3079
sS'thoma'
p498
I1637
sS'rider'
p499
I1890
sS'blue'
p500
I1481
sS'crippl'
p501
I4990
sS'germani'
p502
I2554
sS'plenti'
p503
I1051
sS'though'
p504
I323
sS'bruce'
p505
I1638
sS'object'
p506
I3675
sS'victoria'
p507
I4248
sS'marin'
p508
I4373
sS'mario'
p509
I3417
sS'regular'
p510
I1211
sS'mouth'
p511
I1698
sS'addict'
p512
I3341
sS'letter'
p513
I2229
sS'jean'
p514
I3123
sS'thriller'
p515
I302
sS'glow'
p516
I4662
sS'tradit'
p517
I253
sS'singer'
p518
I240
sS'excus'
p519
I1783
sS'don'
p520
I171
sS'doo'
p521
I5645
sS'doc'
p522
I3124
sS'professor'
p523
I1868
sS'camp'
p524
I2957
sS'flow'
p525
I1387
sS'dog'
p526
I3338
sS'doe'
p527
I233
sS'declar'
p528
I1059
sS'tech'
p529
I3109
sS'technicolor'
p530
I3957
sS'scream'
p531
I1235
sS'came'
p532
I566
sS'marvel'
p533
I967
sS'beaten'
p534
I3058
sS'bomb'
p535
I565
sS'endear'
p536
I1031
sS'saga'
p537
I1825
sS'opposit'
p538
I2481
sS'random'
p539
I1270
sS'dicken'
p540
I2132
sS'unfunni'
p541
I5485
sS'radio'
p542
I489
sS'shirley'
p543
I3757
sS'radic'
p544
I5003
sS'earth'
p545
I875
sS'involv'
p546
I1092
sS'crush'
p547
I213
sS'peck'
p548
I2785
sS'soldier'
p549
I1988
sS'acquir'
p550
I5002
sS'spite'
p551
I1557
sS'carrey'
p552
I3566
sS'explain'
p553
I2375
sS'myth'
p554
I3051
sS'restaur'
p555
I820
sS'bust'
p556
I2492
sS'dreari'
p557
I4316
sS'theme'
p558
I1754
sS'busi'
p559
I680
sS'rick'
p560
I4061
sS'rich'
p561
I106
sS'chamberlain'
p562
I3828
sS'predecessor'
p563
I3722
sS'godzilla'
p564
I3328
sS'nasti'
p565
I1538
sS'likewis'
p566
I3085
sS'stop'
p567
I408
sS'coast'
p568
I1602
sS'pocket'
p569
I1518
sS'amazon'
p570
I3780
sS'giggl'
p571
I3474
sS'meyer'
p572
I8477
sS'report'
p573
I318
sS'sabrina'
p574
I6367
sS'aforement'
p575
I5178
sS'earl'
p576
I3697
sS'bat'
p577
I2772
sS'bar'
p578
I2439
sS'crocodil'
p579
I5328
sS'sacrific'
p580
I4150
sS'bay'
p581
I3248
sS'twice'
p582
I1223
sS'bad'
p583
I645
sS'disney'
p584
I2088
sS'ban'
p585
I1459
sS'movement'
p586
I1663
sS'steal'
p587
I657
sS'steam'
p588
I1569
sS'respond'
p589
I1622
sS'blew'
p590
I3571
sS'vampir'
p591
I3189
sS'victim'
p592
I1752
sS'fair'
p593
I959
sS'habit'
p594
I925
sS'nut'
p595
I3421
sS'elimin'
p596
I2147
sS'preston'
p597
I2800
sS'resist'
p598
I4017
sS'cannib'
p599
I5391
sS'result'
p600
I593
sS'respons'
p601
I1838
sS'fail'
p602
I324
sS'christian'
p603
I2871
sS'hammer'
p604
I3448
sS'plight'
p605
I2105
sS'best'
p606
I182
sS'subject'
p607
I931
sS'lovabl'
p608
I249
sS'awar'
p609
I2240
sS'crown'
p610
I5415
sS'said'
p611
I624
sS'profession'
p612
I1810
sS'away'
p613
I773
sS'gentleman'
p614
I1773
sS'discoveri'
p615
I1842
sS'figur'
p616
I1472
sS'score'
p617
I1019
sS'outstand'
p618
I1118
sS'finger'
p619
I3187
sS'atroc'
p620
I2468
sS'drawn'
p621
I400
sS'enlighten'
p622
I5974
sS'approach'
p623
I907
sS'attribut'
p624
I3202
sS'inabl'
p625
I2430
sS'accord'
p626
I404
sS'men'
p627
I1261
sS'extend'
p628
I3718
sS'mgm'
p629
I4037
sS'weak'
p630
I865
sS'boss'
p631
I200
sS'weav'
p632
I1721
sS'lazi'
p633
I3807
sS'unabl'
p634
I2235
sS'wear'
p635
I1352
sS'unfold'
p636
I349
sS'news'
p637
I317
sS'advertis'
p638
I1699
sS'debt'
p639
I1493
sS'roller'
p640
I5599
sS'kitchen'
p641
I4254
sS'cop'
p642
I2314
sS'protect'
p643
I2480
sS'accident'
p644
I3191
sS'expos'
p645
I2476
sS'updat'
p646
I3698
sS'fault'
p647
I1404
sS'ill'
p648
I673
sS'elm'
p649
I4921
sS'misguid'
p650
I5325
sS'edgar'
p651
I1036
sS'piti'
p652
I52
sS'logic'
p653
I794
sS'countri'
p654
I1733
sS'com'
p655
I1252
sS'kansa'
p656
I6084
sS'con'
p657
I3155
sS'compromis'
p658
I2086
sS'rehash'
p659
I4451
sS'skill'
p660
I2061
sS'assur'
p661
I3557
sS'tough'
p662
I1106
sS'pose'
p663
I1680
sS'toni'
p664
I396
sS'royal'
p665
I3096
sS'territori'
p666
I4302
sS'height'
p667
I1466
sS'kurosawa'
p668
I3982
sS'canyon'
p669
I3969
sS'michell'
p670
I2899
sS'quinn'
p671
I3164
sS'dougla'
p672
I3263
sS'paradis'
p673
I3363
sS'guid'
p674
I325
sS'assum'
p675
I2942
sS'hitler'
p676
I3761
sS'speak'
p677
I290
sS'code'
p678
I4253
sS'bathroom'
p679
I94
sS'strong'
p680
I441
sS'angel'
p681
I3284
sS'nonsens'
p682
I1713
sS'union'
p683
I3246
sS'fri'
p684
I4504
sS'monk'
p685
I3692
sS'convolut'
p686
I5098
sS'three'
p687
I203
sS'beer'
p688
I1506
sS'much'
p689
I17
sS'interest'
p690
I491
sS'basic'
p691
I1204
sS'monologu'
p692
I3536
sS'scarecrow'
p693
I5963
sS'warmth'
p694
I1937
sS'tini'
p695
I3069
sS'threw'
p696
I2745
sS'life'
p697
I9
sS'deeper'
p698
I1093
sS'spit'
p699
I4145
sS'eastern'
p700
I4021
sS'dismiss'
p701
I1707
sS'worker'
p702
I1423
sS'anywher'
p703
I2112
sS'ustinov'
p704
I7930
sS'dave'
p705
I2392
sS'craft'
p706
I2104
sS'alley'
p707
I5934
sS'child'
p708
I587
sS'catch'
p709
I966
sS'spin'
p710
I2044
sS'davi'
p711
I2231
sS'chill'
p712
I578
sS'ugli'
p713
I1011
sS'ident'
p714
I866
sS'tank'
p715
I2309
sS'screenwrit'
p716
I3853
sS'servic'
p717
I3724
sS'properti'
p718
I4332
sS'commerci'
p719
I905
sS'air'
p720
I2685
sS'lesser'
p721
I1942
sS'near'
p722
I480
sS'gritti'
p723
I1901
sS'marriag'
p724
I1492
sS'hopkin'
p725
I1156
sS'occas'
p726
I2652
sS'aid'
p727
I505
sS'vagu'
p728
I2399
sS'anchor'
p729
I3438
sS'seven'
p730
I1057
sS'mexico'
p731
I982
sS'theatr'
p732
I1709
sS'tabl'
p733
I1376
sS'bradi'
p734
I3777
sS'player'
p735
I636
sS'cant'
p736
I3064
sS'madonna'
p737
I5323
sS'uplift'
p738
I2106
sS'unforgett'
p739
I2549
sS'sever'
p740
I455
sS'grown'
p741
I516
sS'precis'
p742
I3555
sS'hong'
p743
I1951
sS'descent'
p744
I5271
sS'credit'
p745
I1262
sS'perform'
p746
I330
sS'suggest'
p747
I2202
sS'make'
p748
I110
sS'wound'
p749
I2978
sS'airport'
p750
I4619
sS'dazzl'
p751
I1987
sS'dean'
p752
I2208
sS'complex'
p753
I2155
sS'split'
p754
I3016
sS'jungl'
p755
I2228
sS'costum'
p756
I1306
sS'jerri'
p757
I3771
sS'complet'
p758
I844
sS'hank'
p759
I2817
sS'evid'
p760
I1193
sS'social'
p761
I1355
sS'hang'
p762
I1385
sS'evil'
p763
I671
sS'hand'
p764
I169
sS'delight'
p765
I1950
sS'simmon'
p766
I3733
sS'rais'
p767
I786
sS'ingeni'
p768
I972
sS'esther'
p769
I5230
sS'kim'
p770
I2902
sS'rex'
p771
I3393
sS'jealous'
p772
I3736
sS'overr'
p773
I1303
sS'tune'
p774
I1260
sS'kid'
p775
I80
sS'campi'
p776
I1034
sS'geek'
p777
I3163
sS'kept'
p778
I678
sS'scenario'
p779
I488
sS'roommat'
p780
I2686
sS'inherit'
p781
I2148
sS'ocean'
p782
I1351
sS'bloodi'
p783
I2536
sS'contact'
p784
I784
sS'greatest'
p785
I1175
sS'mother'
p786
I395
sS'programm'
p787
I2614
sS'everyth'
p788
I66
sS'controversi'
p789
I2520
sS'left'
p790
I739
sS'identifi'
p791
I1759
sS'birth'
p792
I1464
sS'just'
p793
I71
sS'charlott'
p794
I6583
sS'photo'
p795
I570
sS'nowaday'
p796
I1091
sS'elabor'
p797
I4252
sS'unfair'
p798
I1396
sS'nineti'
p799
I2827
sS'human'
p800
I65
sS'flynn'
p801
I5866
sS'yes'
p802
I344
sS'yet'
p803
I585
sS'languag'
p804
I1284
sS'previous'
p805
I760
sS'awaken'
p806
I2935
sS'hal'
p807
I2276
sS'ham'
p808
I3705
sS'easi'
p809
I1688
sS'sinatra'
p810
I4835
sS'thick'
p811
I2989
sS'character'
p812
I442
sS'mundan'
p813
I5108
sS'sensat'
p814
I3463
sS'hay'
p815
I4367
sS'shout'
p816
I3401
sS'spread'
p817
I1716
sS'board'
p818
I1488
sS'endur'
p819
I2056
sS'els'
p820
I266
sS'save'
p821
I1377
sS'hat'
p822
I2542
sS'gave'
p823
I239
sS'bakshi'
p824
I5715
sS'mayb'
p825
I174
sS'preserv'
p826
I2395
sS'arab'
p827
I3965
sS'posey'
p828
I7098
sS'tarzan'
p829
I3666
sS'leagu'
p830
I3135
sS'background'
p831
I518
sS'linda'
p832
I2703
sS'shadow'
p833
I3114
sS'rumor'
p834
I2419
sS'apart'
p835
I514
sS'shoulder'
p836
I2828
sS'measur'
p837
I1553
sS'gift'
p838
I3102
sS'specif'
p839
I2813
sS'fay'
p840
I5355
sS'contradict'
p841
I2407
sS'nude'
p842
I1482
sS'hunt'
p843
I1582
sS'negat'
p844
I2470
sS'mechan'
p845
I3961
sS'darn'
p846
I5027
sS'divers'
p847
I3710
sS'remind'
p848
I31
sS'pervers'
p849
I4480
sS'night'
p850
I341
sS'hung'
p851
I3369
sS'incoher'
p852
I5904
sS'unnecessari'
p853
I359
sS'attorney'
p854
I2732
sS'right'
p855
I26
sS'old'
p856
I529
sS'crowd'
p857
I1416
sS'disord'
p858
I4771
sS'paltrow'
p859
I4230
sS'somehow'
p860
I2525
sS'dead'
p861
I402
sS'wwe'
p862
I6116
sS'born'
p863
I674
sS'intern'
p864
I1977
sS'downey'
p865
I2903
sS'dear'
p866
I2985
sS'bore'
p867
I1107
sS'creep'
p868
I2750
sS'witti'
p869
I2912
sS'chorus'
p870
I4039
sS'deaf'
p871
I5747
sS'humor'
p872
I859
sS'combat'
p873
I3156
sS'bottom'
p874
I1684
sS'bett'
p875
I2230
sS'fox'
p876
I2872
sS'arthur'
p877
I4427
sS'ice'
p878
I1624
sS'eddi'
p879
I4794
sS'eleph'
p880
I2188
sS'fog'
p881
I1787
sS'overcom'
p882
I1588
sS'myer'
p883
I6047
sS'condit'
p884
I1630
sS'traci'
p885
I4743
sS'matthau'
p886
I5843
sS'core'
p887
I363
sS'sensibl'
p888
I2558
sS'bold'
p889
I1957
sS'tour'
p890
I3298
sS'bobbi'
p891
I430
sS'buri'
p892
I3639
sS'blackmail'
p893
I3259
sS'burt'
p894
I3934
sS'protagonist'
p895
I1939
sS'colleg'
p896
I2937
sS'promot'
p897
I3565
sS'cruis'
p898
I3749
sS'khan'
p899
I3054
sS'post'
p900
I939
sS'super'
p901
I1083
sS'spoke'
p902
I1712
sS'chapter'
p903
I1924
sS'alexand'
p904
I3754
sS'eat'
p905
I2792
sS'cowboy'
p906
I3130
sS'literatur'
p907
I2257
sS'surround'
p908
I1743
sS'unfortun'
p909
I897
sS'festiv'
p910
I1763
sS'dinner'
p911
I1375
sS'despair'
p912
I696
sS'plus'
p913
I749
sS'afternoon'
p914
I4152
sS'tacki'
p915
I2382
sS'commit'
p916
I1383
sS'kyle'
p917
I4130
sS'produc'
p918
I1677
sS'bath'
p919
I3019
sS'duke'
p920
I3930
sS'civil'
p921
I1732
sS'tackl'
p922
I3616
sS'float'
p923
I1558
sS'contriv'
p924
I1723
sS'bound'
p925
I1603
sS'son'
p926
I1970
sS'creativ'
p927
I2103
sS'wrap'
p928
I706
sS'opportun'
p929
I1757
sS'insult'
p930
I3444
sS'rant'
p931
I4386
sS'inhabit'
p932
I3796
sS'east'
p933
I3750
sS'deal'
p934
I2153
sS'suffici'
p935
I3852
sS'psychot'
p936
I4559
sS'quirki'
p937
I299
sS'support'
p938
I818
sS'omen'
p939
I5793
sS'transform'
p940
I1566
sS'fight'
p941
I147
sS'avail'
p942
I2688
sS'stuck'
p943
I1381
sS'anderson'
p944
I468
sS'joseph'
p945
I3271
sS'editor'
p946
I494
sS'way'
p947
I250
sS'spring'
p948
I3151
sS'jane'
p949
I2295
sS'music'
p950
I1177
sS'devil'
p951
I3424
sS'war'
p952
I77
sS'neo'
p953
I3368
sS'lowest'
p954
I4815
sS'head'
p955
I1710
sS'medium'
p956
I3211
sS'amateur'
p957
I3453
sS'form'
p958
I492
sS'offer'
p959
I439
sS'forc'
p960
I1105
sS'batman'
p961
I3672
sS'heal'
p962
I2809
sS'spike'
p963
I2413
sS'unconvinc'
p964
I3472
sS'oil'
p965
I3265
sS'ford'
p966
I2816
sS'catchi'
p967
I3398
sS'heat'
p968
I3047
sS'hear'
p969
I376
sS'choreograph'
p970
I4276
sS'true'
p971
I384
sS'butler'
p972
I4026
sS'basketbal'
p973
I4716
sS'absent'
p974
I3638
sS'ami'
p975
I5020
sS'revel'
p976
I424
sS'daddi'
p977
I1821
sS'mtv'
p978
I5143
sS'bargain'
p979
I3723
sS'crystal'
p980
I5142
sS'absenc'
p981
I4581
sS'fundament'
p982
I1401
sS'unrel'
p983
I2043
sS'retir'
p984
I1639
sS'trio'
p985
I3721
sS'featur'
p986
I955
sS'alongsid'
p987
I3170
sS'classic'
p988
I40
sS'stronger'
p989
I2032
sS'nobodi'
p990
I4081
sS'israel'
p991
I5940
sS'stallon'
p992
I2821
sS'sale'
p993
I4704
sS'goldberg'
p994
I5594
sS'exist'
p995
I498
sS'glanc'
p996
I4163
sS'valentin'
p997
I6172
sS'furi'
p998
I2292
sS'nuditi'
p999
I1283
sS'ship'
p1000
I1153
sS'tooth'
p1001
I2168
sS'trip'
p1002
I1110
sS'assembl'
p1003
I1140
sS'floor'
p1004
I1565
sS'holli'
p1005
I4155
sS'stake'
p1006
I5267
sS'excel'
p1007
I502
sS'actor'
p1008
I292
sS'tim'
p1009
I1186
sS'role'
p1010
I460
sS'communic'
p1011
I2970
sS'jone'
p1012
I2414
sS'test'
p1013
I2475
sS'tie'
p1014
I828
sS'presum'
p1015
I2918
sS'roll'
p1016
I2668
sS'realiti'
p1017
I19
sS'tame'
p1018
I2263
sS'matur'
p1019
I1830
sS'intend'
p1020
I1332
sS'devot'
p1021
I2130
sS'felt'
p1022
I327
sS'intens'
p1023
I849
sS'intent'
p1024
I841
sS'award'
p1025
I457
sS'consid'
p1026
I64
sS'businessman'
p1027
I3347
sS'muslim'
p1028
I4193
sS'cooper'
p1029
I2548
sS'weekend'
p1030
I2776
sS'troop'
p1031
I2966
sS'grief'
p1032
I3813
sS'femal'
p1033
I1008
sS'shootout'
p1034
I4138
sS'rabbit'
p1035
I5427
sS'faster'
p1036
I807
sS'furthermor'
p1037
I1649
sS'glass'
p1038
I3313
sS'pseudo'
p1039
I4833
sS'mall'
p1040
I4399
sS'jacket'
p1041
I3220
sS'pet'
p1042
I4628
sS'loyal'
p1043
I3018
sS'vietnam'
p1044
I4536
sS'ignor'
p1045
I1613
sS'time'
p1046
I6
sS'push'
p1047
I2351
sS'serious'
p1048
I649
sS'backward'
p1049
I3204
sS'daili'
p1050
I2847
sS'exposur'
p1051
I4013
sS'snl'
p1052
I8891
sS'concept'
p1053
I583
sS'doctor'
p1054
I2775
sS'chain'
p1055
I915
sS'whoever'
p1056
I973
sS'skip'
p1057
I3230
sS'rob'
p1058
I2704
sS'celebr'
p1059
I387
sS'rod'
p1060
I3251
sS'focus'
p1061
I1309
sS'invent'
p1062
I2946
sS'laura'
p1063
I2237
sS'known'
p1064
I1931
sS'mild'
p1065
I837
sS'stumbl'
p1066
I1389
sS'nephew'
p1067
I5265
sS'skin'
p1068
I2565
sS'dalton'
p1069
I6125
sS'chair'
p1070
I2377
sS'seller'
p1071
I4859
sS'ward'
p1072
I3078
sS'row'
p1073
I1199
sS'decid'
p1074
I109
sS'uneven'
p1075
I2373
sS'depend'
p1076
I1477
sS'zone'
p1077
I878
sS'recognit'
p1078
I2794
sS'flash'
p1079
I1275
sS'father'
p1080
I1823
sS'substitut'
p1081
I2252
sS'german'
p1082
I2552
sS'decis'
p1083
I1611
sS'rhythm'
p1084
I1071
sS'terror'
p1085
I1045
sS'clint'
p1086
I3142
sS'dimens'
p1087
I3540
sS'timon'
p1088
I8517
sS'brown'
p1089
I1345
sS'sourc'
p1090
I2260
sS'sappi'
p1091
I2284
sS'string'
p1092
I1018
sS'jerk'
p1093
I3608
sS'ensu'
p1094
I2113
sS'rendit'
p1095
I4711
sS'underr'
p1096
I229
sS'clich'
p1097
I2121
sS'lynch'
p1098
I3839
sS'convict'
p1099
I3071
sS'cook'
p1100
I3640
sS'join'
p1101
I1969
sS'blast'
p1102
I1017
sS'exact'
p1103
I1233
sS'forgett'
p1104
I5707
sS'cool'
p1105
I1124
sS'dim'
p1106
I5151
sS'din'
p1107
I11641
sS'slapstick'
p1108
I164
sS'valuabl'
p1109
I168
sS'level'
p1110
I1259
sS'tear'
p1111
I1299
sS'die'
p1112
I504
sS'henri'
p1113
I1861
sS'brother'
p1114
I2127
sS'shortcom'
p1115
I2515
sS'belushi'
p1116
I4750
sS'team'
p1117
I900
sS'quick'
p1118
I573
sS'guy'
p1119
I329
sS'recogniz'
p1120
I1673
sS'round'
p1121
I2136
sS'librari'
p1122
I3599
sS'upper'
p1123
I1487
sS'brave'
p1124
I2787
sS'boxer'
p1125
I5404
sS'regret'
p1126
I1171
sS'porn'
p1127
I1850
sS'trend'
p1128
I2477
sS'compens'
p1129
I3489
sS'sign'
p1130
I2647
sS'neglect'
p1131
I2868
sS'cost'
p1132
I974
sS'roof'
p1133
I2454
sS'alfr'
p1134
I4447
sS'run'
p1135
I526
sS'helpless'
p1136
I2017
sS'bake'
p1137
I3308
sS'rough'
p1138
I2489
sS'rapist'
p1139
I4825
sS'appear'
p1140
I1494
sS'filler'
p1141
I5040
sS'feat'
p1142
I3525
sS'favour'
p1143
I4379
sS'melt'
p1144
I4059
sS'uniform'
p1145
I3504
sS'current'
p1146
I2204
sS'grotesqu'
p1147
I5390
sS'suspect'
p1148
I1206
sS'goer'
p1149
I2608
sS'indiffer'
p1150
I201
sS'appeal'
p1151
I1202
sS'era'
p1152
I1660
sS'burn'
p1153
I37
sS'deriv'
p1154
I4178
sS'nuanc'
p1155
I3056
sS'abrupt'
p1156
I3090
sS'clerk'
p1157
I4199
sS'makeup'
p1158
I2795
sS'french'
p1159
I1090
sS'caricatur'
p1160
I4181
sS'water'
p1161
I1362
sS'entertain'
p1162
I92
sS'witch'
p1163
I3869
sS'address'
p1164
I2009
sS'noir'
p1165
I3245
sS'along'
p1166
I1572
sS'teacher'
p1167
I10
sS'wait'
p1168
I764
sS'box'
p1169
I1271
sS'boy'
p1170
I314
sS'hbo'
p1171
I2771
sS'insan'
p1172
I300
sS'sheriff'
p1173
I3716
sS'shove'
p1174
I3428
sS'canadian'
p1175
I766
sS'brilliant'
p1176
I180
sS'shift'
p1177
I1599
sS'jay'
p1178
I3407
sS'dixon'
p1179
I6309
sS'bow'
p1180
I1567
sS'cusack'
p1181
I3534
sS'trial'
p1182
I1829
sS'behav'
p1183
I1511
sS'thirti'
p1184
I113
sS'paxton'
p1185
I1348
sS'extrem'
p1186
I1314
sS'weird'
p1187
I2583
sS'guilti'
p1188
I2196
sS'ourselv'
p1189
I653
sS'preposter'
p1190
I3262
sS'elect'
p1191
I83
sS'humour'
p1192
I2157
sS'extra'
p1193
I1608
sS'prefer'
p1194
I1967
sS'anni'
p1195
I5316
sS'pierc'
p1196
I3993
sS'fake'
p1197
I3329
sS'instal'
p1198
I2364
sS'fbi'
p1199
I3456
sS'shelley'
p1200
I5164
sS'market'
p1201
I1896
sS'eccentr'
p1202
I987
sS'reminisc'
p1203
I2246
sS'franci'
p1204
I4105
sS'andi'
p1205
I3494
sS'vivid'
p1206
I688
sS'prove'
p1207
I715
sS'sake'
p1208
I1697
sS'univers'
p1209
I2058
sS'visit'
p1210
I1485
sS'angela'
p1211
I5308
sS'everybodi'
p1212
I3467
sS'live'
p1213
I88
sS'prey'
p1214
I3257
sS'tape'
p1215
I427
sS'australian'
p1216
I1776
sS'thru'
p1217
I3152
sS'household'
p1218
I4880
sS'today'
p1219
I932
sS'andr'
p1220
I1001
sS'capit'
p1221
I1224
sS'riot'
p1222
I3583
sS'montana'
p1223
I5582
sS'afford'
p1224
I2007
sS'peopl'
p1225
I70
sS'claus'
p1226
I4682
sS'enhanc'
p1227
I2029
sS'visual'
p1228
I1232
sS'drown'
p1229
I4968
sS'olivi'
p1230
I970
sS'biographi'
p1231
I1691
sS'examin'
p1232
I2159
sS'ventur'
p1233
I2371
sS'effort'
p1234
I845
sS'piano'
p1235
I3580
sS'religi'
p1236
I1087
sS'judi'
p1237
I5381
sS'graphic'
p1238
I2589
sS'car'
p1239
I1990
sS'prepar'
p1240
I617
sS'cap'
p1241
I894
sS'judg'
p1242
I1101
sS'uniqu'
p1243
I1113
sS'cat'
p1244
I1044
sS'fli'
p1245
I1574
sS'soup'
p1246
I3606
sS'vega'
p1247
I4856
sS'can'
p1248
I24
sS'mill'
p1249
I3758
sS'purpos'
p1250
I1444
sS'pretens'
p1251
I1536
sS'slightest'
p1252
I4084
sS'claim'
p1253
I1147
sS'collaps'
p1254
I2145
sS'complic'
p1255
I2587
sS'favourit'
p1256
I2308
sS'fabul'
p1257
I1826
sS'stream'
p1258
I3214
sS'predict'
p1259
I546
sS'reynold'
p1260
I3935
sS'agent'
p1261
I946
sS'topic'
p1262
I2915
sS'heard'
p1263
I816
sS'critic'
p1264
I380
sS'cube'
p1265
I4288
sS'maci'
p1266
I3495
sS'phrase'
p1267
I2316
sS'recycl'
p1268
I4533
sS'agenc'
p1269
I4375
sS'stole'
p1270
I949
sS'occur'
p1271
I1597
sS'craze'
p1272
I3374
sS'pink'
p1273
I3996
sS'multipl'
p1274
I1470
sS'winter'
p1275
I4657
sS'sidney'
p1276
I4487
sS'robinson'
p1277
I4401
sS'foul'
p1278
I4814
sS'get'
p1279
I223
sS'write'
p1280
I1138
sS'alway'
p1281
I1168
sS'sunday'
p1282
I2537
sS'clichd'
p1283
I1779
sS'anyon'
p1284
I581
sS'mildr'
p1285
I4596
sS'pure'
p1286
I712
sS'helen'
p1287
I4557
sS'nyc'
p1288
I4685
sS'condemn'
p1289
I4456
sS'marshal'
p1290
I3916
sS'product'
p1291
I842
sS'mar'
p1292
I1981
sS'paramount'
p1293
I3582
sS'may'
p1294
I595
sS'neat'
p1295
I1744
sS'clone'
p1296
I1460
sS'spot'
p1297
I850
sS'birthday'
p1298
I3653
sS'mad'
p1299
I211
sS'date'
p1300
I1273
sS'remak'
p1301
I2997
sS'suck'
p1302
I1704
sS'secondari'
p1303
I3693
sS'eighti'
p1304
I4432
sS'grow'
p1305
I1832
sS'man'
p1306
I107
sS'drake'
p1307
I4782
sS'stress'
p1308
I1491
sS'unsettl'
p1309
I538
sS'practic'
p1310
I1661
sS'johnson'
p1311
I589
sS'conscious'
p1312
I1741
sS'secur'
p1313
I1665
sS'favorit'
p1314
I207
sS'offens'
p1315
I1144
sS'tale'
p1316
I708
sS'inform'
p1317
I676
sS'switch'
p1318
I3092
sS'truck'
p1319
I666
sS'chavez'
p1320
I11716
sS'unleash'
p1321
I2415
sS'offend'
p1322
I3578
sS'battl'
p1323
I2051
sS'kurt'
p1324
I3159
sS'ordinari'
p1325
I3549
sS'talk'
p1326
I389
sS'drunken'
p1327
I3024
sS'cute'
p1328
I2025
sS'bush'
p1329
I3120
sS'fairi'
p1330
I3971
sS'anticip'
p1331
I522
sS'horrifi'
p1332
I1065
sS'gradual'
p1333
I1257
sS'storylin'
p1334
I810
sS'approv'
p1335
I2951
sS'farrel'
p1336
I6347
sS'che'
p1337
I8391
sS'kong'
p1338
I1952
sS'arm'
p1339
I3359
sS'brain'
p1340
I2673
sS'lyric'
p1341
I2981
sS'divid'
p1342
I4534
sS'shake'
p1343
I2236
sS'emphasi'
p1344
I2681
sS'cold'
p1345
I1550
sS'still'
p1346
I247
sS'adopt'
p1347
I394
sS'dynam'
p1348
I3558
sS'bacal'
p1349
I5215
sS'group'
p1350
I1139
sS'thank'
p1351
I793
sS'hors'
p1352
I2221
sS'polici'
p1353
I4428
sS'passag'
p1354
I3180
sS'torn'
p1355
I709
sS'dysfunct'
p1356
I3062
sS'maid'
p1357
I4407
sS'window'
p1358
I2274
sS'suspicion'
p1359
I3851
sS'requir'
p1360
I2068
sS'farmer'
p1361
I4250
sS'mail'
p1362
I2822
sS'mediocr'
p1363
I571
sS'main'
p1364
I1096
sS'confin'
p1365
I3084
sS'ramon'
p1366
I5392
sS'clair'
p1367
I4160
sS'non'
p1368
I1009
sS'evok'
p1369
I463
sS'recal'
p1370
I39
sS'wealthi'
p1371
I1503
sS'nod'
p1372
I3242
sS'financi'
p1373
I21
sS'killer'
p1374
I580
sS'initi'
p1375
I432
sS'nation'
p1376
I1644
sS'underneath'
p1377
I2757
sS'interview'
p1378
I1064
sS'loneli'
p1379
I4159
sS'hamilton'
p1380
I4741
sS'aesthet'
p1381
I2499
sS'half'
p1382
I726
sS'freez'
p1383
I1522
sS'now'
p1384
I411
sS'twilight'
p1385
I3649
sS'hall'
p1386
I452
sS'possess'
p1387
I2638
sS'wont'
p1388
I3105
sS'term'
p1389
I2139
sS'name'
p1390
I129
sS'robbin'
p1391
I11389
sS'realist'
p1392
I234
sS'servant'
p1393
I1507
sS'stir'
p1394
I3843
sS'amateurish'
p1395
I4727
sS'drop'
p1396
I1256
sS'oliv'
p1397
I3137
sS'separ'
p1398
I1354
sS'magazin'
p1399
I2982
sS'jimmi'
p1400
I3286
sS'rock'
p1401
I1736
sS'polit'
p1402
I1927
sS'courag'
p1403
I934
sS'realism'
p1404
I3057
sS'nick'
p1405
I3735
sS'replac'
p1406
I956
sS'individu'
p1407
I2018
sS'kane'
p1408
I238
sS'continu'
p1409
I1365
sS'borrow'
p1410
I2376
sS'atroci'
p1411
I5348
sS'year'
p1412
I11
sS'prostitut'
p1413
I3385
sS'girl'
p1414
I1236
sS'dispos'
p1415
I2100
sS'album'
p1416
I2321
sS'shown'
p1417
I1294
sS'ambit'
p1418
I1813
sS'jackson'
p1419
I2669
sS'space'
p1420
I2047
sS'profit'
p1421
I5339
sS'rampag'
p1422
I3317
sS'miyazaki'
p1423
I10126
sS'twelv'
p1424
I1685
sS'pamela'
p1425
I3671
sS'dolph'
p1426
I4521
sS'dutch'
p1427
I2983
sS'uncl'
p1428
I3036
sS'formula'
p1429
I1891
sS'ironi'
p1430
I3225
sS'correct'
p1431
I453
sS'romanc'
p1432
I1163
sS'palanc'
p1433
I6106
sS'diseas'
p1434
I2291
sS'monster'
p1435
I1067
sS'glimps'
p1436
I2501
sS'domest'
p1437
I4261
sS'million'
p1438
I951
sS'seventi'
p1439
I2283
sS'hulk'
p1440
I1702
sS'sneak'
p1441
I3931
sS'cari'
p1442
I2814
sS'california'
p1443
I1619
sS'rebel'
p1444
I2303
sS'carl'
p1445
I2950
sS'romant'
p1446
I1151
sS'institut'
p1447
I5056
sS'stanwyck'
p1448
I4555
sS'keith'
p1449
I3112
sS'unpredict'
p1450
I2526
sS'card'
p1451
I2629
sS'care'
p1452
I552
sS'soundtrack'
p1453
I1451
sS'couldn'
p1454
I2282
sS'question'
p1455
I398
sS'punk'
p1456
I4840
sS'refus'
p1457
I1648
sS'honest'
p1458
I1476
sS'motion'
p1459
I1268
sS'thing'
p1460
I75
sS'place'
p1461
I997
sS'vision'
p1462
I2054
sS'frustrat'
p1463
I1495
sS'profess'
p1464
I13
sS'childhood'
p1465
I1066
sS'frequent'
p1466
I821
sS'first'
p1467
I621
sS'origin'
p1468
I758
sS'clumsi'
p1469
I4891
sS'suspend'
p1470
I1243
sS'improvis'
p1471
I3103
sS'carri'
p1472
I643
sS'onc'
p1473
I63
sS'rachel'
p1474
I2649
sS'cheesi'
p1475
I1025
sS'one'
p1476
I43
sS'suspens'
p1477
I309
sS'long'
p1478
I911
sS'spanish'
p1479
I3355
sS'vote'
p1480
I68
sS'branagh'
p1481
I6687
sS'ring'
p1482
I853
sS'drove'
p1483
I1700
sS'open'
p1484
I664
sS'tomorrow'
p1485
I3901
sS'size'
p1486
I994
sS'given'
p1487
I86
sS'ian'
p1488
I3844
sS'sheet'
p1489
I3365
sS'silent'
p1490
I1350
sS'convent'
p1491
I880
sS'imit'
p1492
I2790
sS'bloom'
p1493
I4144
sS'caught'
p1494
I1072
sS'breed'
p1495
I2969
sS'franco'
p1496
I5902
sS'reli'
p1497
I3238
sS'loyalti'
p1498
I1916
sS'citi'
p1499
I513
sS'silenc'
p1500
I791
sS'necessarili'
p1501
I2162
sS'tragic'
p1502
I1286
sS'averag'
p1503
I647
sS'circl'
p1504
I3426
sS'white'
p1505
I1043
sS'conveni'
p1506
I2087
sS'friend'
p1507
I694
sS'subplot'
p1508
I2389
sS'slasher'
p1509
I4916
sS'knowledg'
p1510
I683
sS'especi'
p1511
I568
sS'compass'
p1512
I4715
sS'season'
p1513
I767
sS'copi'
p1514
I1817
sS'huh'
p1515
I4572
sS'alan'
p1516
I4243
sS'templ'
p1517
I3376
sS'broadcast'
p1518
I2971
sS'antic'
p1519
I2358
sS'butt'
p1520
I3183
sS'domin'
p1521
I1936
sS'stargat'
p1522
I2134
sS'boyfriend'
p1523
I785
sS'serv'
p1524
I2711
sS'wide'
p1525
I1583
sS'nathan'
p1526
I5512
sS'instanc'
p1527
I2680
sS'passabl'
p1528
I4530
sS'rival'
p1529
I112
sS'inferior'
p1530
I1866
sS'susan'
p1531
I2692
sS'recruit'
p1532
I2336
sS'balanc'
p1533
I2491
sS'coat'
p1534
I4324
sS'posit'
p1535
I2517
sS'russia'
p1536
I4535
sS'seri'
p1537
I1463
sS'pre'
p1538
I4028
sS'mountain'
p1539
I2758
sS'delic'
p1540
I2490
sS'conspiraci'
p1541
I2728
sS'san'
p1542
I4042
sS'sam'
p1543
I2675
sS'craig'
p1544
I3255
sS'ann'
p1545
I131
sS'premier'
p1546
I3171
sS'ani'
p1547
I528
sS'slap'
p1548
I2409
sS'sad'
p1549
I1181
sS'dash'
p1550
I1002
sS'say'
p1551
I202
sS'slam'
p1552
I3794
sS'comedian'
p1553
I2427
sS'rent'
p1554
I286
sS'deliv'
p1555
I1454
sS'portrait'
p1556
I1063
sS'allen'
p1557
I1037
sS'turner'
p1558
I3804
sS'dragon'
p1559
I3645
sS'saw'
p1560
I33
sS'kevin'
p1561
I4347
sS'sat'
p1562
I3431
sS'coach'
p1563
I4387
sS'mislead'
p1564
I2164
sS'engin'
p1565
I1146
sS'techniqu'
p1566
I1786
sS'advic'
p1567
I1971
sS'greek'
p1568
I2755
sS'veteran'
p1569
I2830
sS'note'
p1570
I719
sS'altogeth'
p1571
I2462
sS'ideal'
p1572
I2844
sS'danni'
p1573
I4459
sS'lion'
p1574
I4720
sS'take'
p1575
I194
sS'advis'
p1576
I3437
sS'interior'
p1577
I1568
sS'destroy'
p1578
I1755
sS'concern'
p1579
I1595
sS'blunt'
p1580
I5532
sS'noth'
p1581
I637
sS'channel'
p1582
I1128
sS'wrench'
p1583
I3045
sS'surf'
p1584
I4452
sS'begin'
p1585
I964
sS'sure'
p1586
I231
sS'pain'
p1587
I1760
sS'norman'
p1588
I3769
sS'trace'
p1589
I3416
sS'normal'
p1590
I1666
sS'track'
p1591
I1790
sS'price'
p1592
I285
sS'knew'
p1593
I32
sS'entranc'
p1594
I4010
sS'paid'
p1595
I2365
sS'plagu'
p1596
I3632
sS'assault'
p1597
I2385
sS'wire'
p1598
I4429
sS'abus'
p1599
I499
sS'connor'
p1600
I5358
sS'pair'
p1601
I2345
sS'america'
p1602
I1592
sS'icon'
p1603
I1448
sS'perceiv'
p1604
I4500
sS'pathet'
p1605
I27
sS'rescu'
p1606
I500
sS'later'
p1607
I208
sS'drive'
p1608
I2278
sS'mrs'
p1609
I1647
sS'julian'
p1610
I4361
sS'meanwhil'
p1611
I1517
sS'backdrop'
p1612
I4119
sS'harvey'
p1613
I4453
sS'reed'
p1614
I3138
sS'bumbl'
p1615
I4004
sS'abraham'
p1616
I5540
sS'hungri'
p1617
I3118
sS'shop'
p1618
I2563
sS'shot'
p1619
I887
sS'show'
p1620
I160
sS'cheat'
p1621
I1544
sS'feminist'
p1622
I3436
sS'cheap'
p1623
I769
sS'merit'
p1624
I903
sS'bright'
p1625
I2896
sS'shoe'
p1626
I3981
sS'hack'
p1627
I660
sS'corner'
p1628
I2534
sS'tend'
p1629
I2023
sS'insur'
p1630
I4227
sS'contemporari'
p1631
I2150
sS'ground'
p1632
I2483
sS'enthusiast'
p1633
I2777
sS'onli'
p1634
I262
sS'slow'
p1635
I347
sS'travesti'
p1636
I2165
sS'favor'
p1637
I3554
sS'dick'
p1638
I3908
sS'activ'
p1639
I2574
sS'written'
p1640
I124
sS'crime'
p1641
I2311
sS'wood'
p1642
I2498
sS'black'
p1643
I1042
sS'thompson'
p1644
I4236
sS'enthusiasm'
p1645
I2513
sS'akshay'
p1646
I7635
sS'psychiatrist'
p1647
I679
sS'emili'
p1648
I5804
sS'cannon'
p1649
I230
sS'mormon'
p1650
I6401
sS'jazz'
p1651
I5380
sS'cia'
p1652
I4681
sS'mission'
p1653
I1058
sS'crude'
p1654
I3077
sS'leon'
p1655
I5137
sS'brit'
p1656
I4170
sS'brosnan'
p1657
I6349
sS'gem'
p1658
I1883
sS'truli'
p1659
I256
sS'prime'
p1660
I2870
sS'reveal'
p1661
I503
sS'skull'
p1662
I2604
sS'artist'
p1663
I1498
sS'seldom'
p1664
I2992
sS'dramat'
p1665
I183
sS'alicia'
p1666
I4527
sS'stupid'
p1667
I170
sS'roger'
p1668
I2172
sS'nicol'
p1669
I4109
sS'amanda'
p1670
I2834
sS'husband'
p1671
I1378
sS'summari'
p1672
I2873
sS'trilog'
p1673
I1183
sS'ned'
p1674
I4203
sS'concert'
p1675
I3099
sS'burst'
p1676
I1740
sS'conscienc'
p1677
I2451
sS'menac'
p1678
I1245
sS'seat'
p1679
I771
sS'solo'
p1680
I4294
sS'gangster'
p1681
I2471
sS'asleep'
p1682
I3110
sS'sean'
p1683
I3943
sS'broadway'
p1684
I3808
sS'stanley'
p1685
I2390
sS'sport'
p1686
I2344
sS'wonder'
p1687
I371
sS'intim'
p1688
I4082
sS'detect'
p1689
I2205
sS'televis'
p1690
I1598
sS'overdon'
p1691
I3231
sS'innov'
p1692
I3068
sS'vari'
p1693
I3740
sS'review'
p1694
I572
sS'label'
p1695
I2404
sS'enough'
p1696
I369
sS'wayn'
p1697
I3719
sS'import'
p1698
I1099
sS'across'
p1699
I765
sS'parent'
p1700
I704
sS'screen'
p1701
I658
sS'preach'
p1702
I4172
sS'blame'
p1703
I1254
sS'spare'
p1704
I2619
sS'spark'
p1705
I2741
sS'come'
p1706
I750
sS'abomin'
p1707
I3314
sS'reaction'
p1708
I1390
sS'stinker'
p1709
I1277
sS'mob'
p1710
I3039
sS'comed'
p1711
I296
sS'region'
p1712
I2090
sS'cagney'
p1713
I4344
sS'quiet'
p1714
I2670
sS'contract'
p1715
I592
sS'temper'
p1716
I2290
sS'audienc'
p1717
I291
sS'inconsist'
p1718
I3093
sS'mani'
p1719
I46
sS'prequel'
p1720
I4069
sS'mann'
p1721
I3260
sS'among'
p1722
I576
sS'key'
p1723
I478
sS'cancer'
p1724
I4963
sS'color'
p1725
I670
sS'pot'
p1726
I531
sS'inspir'
p1727
I178
sS'period'
p1728
I577
sS'pop'
p1729
I713
sS'duti'
p1730
I2429
sS'exploit'
p1731
I1853
sS'jeremi'
p1732
I4234
sS'anti'
p1733
I2617
sS'cancel'
p1734
I2885
sS'freak'
p1735
I2654
sS'nicola'
p1736
I2095
sS'coloni'
p1737
I3655
sS'undoubt'
p1738
I3836
sS'boat'
p1739
I1336
sS'damag'
p1740
I2956
sS'turkey'
p1741
I3977
sS'inan'
p1742
I3309
sS'ultim'
p1743
I496
sS'coupl'
p1744
I433
sS'howard'
p1745
I140
sS'stretch'
p1746
I1612
sS'west'
p1747
I2601
sS'suicid'
p1748
I1384
sS'mark'
p1749
I954
sS'breath'
p1750
I3503
sS'jon'
p1751
I5273
sS'toss'
p1752
I3199
sS'carel'
p1753
I3575
sS'barri'
p1754
I2690
sS'voight'
p1755
I5302
sS'crawford'
p1756
I3730
sS'cuba'
p1757
I5632
sS'gray'
p1758
I4969
sS'emphas'
p1759
I3650
sS'thousand'
p1760
I1361
sS'resolut'
p1761
I1912
sS'rubi'
p1762
I4350
sS'andrew'
p1763
I1337
sS'chao'
p1764
I2370
sS'tiger'
p1765
I2347
sS'wake'
p1766
I3422
sS'robberi'
p1767
I4137
sS'penn'
p1768
I3336
sS'drum'
p1769
I3108
sS'lectur'
p1770
I4693
sS'former'
p1771
I525
sS'robber'
p1772
I3966
sS'pilot'
p1773
I2646
sS'sound'
p1774
I854
sS'antonioni'
p1775
I5551
sS'soccer'
p1776
I3891
sS'stereotyp'
p1777
I2913
sS'cash'
p1778
I2867
sS'arnold'
p1779
I4214
sS'trick'
p1780
I2108
sS'cast'
p1781
I264
sS'cure'
p1782
I4000
sS'outcom'
p1783
I755
sS'empir'
p1784
I3914
sS'pro'
p1785
I2720
sS'advantag'
p1786
I3994
sS'topless'
p1787
I5268
sS'pokemon'
p1788
I6393
sS'henc'
p1789
I1032
sS'convinc'
p1790
I1266
sS'worri'
p1791
I74
sS'destin'
p1792
I2919
sS'strain'
p1793
I3543
sS'sudden'
p1794
I506
sS'satan'
p1795
I3386
sS'outrag'
p1796
I2626
sS'nearbi'
p1797
I4729
sS'pursu'
p1798
I1837
sS'fame'
p1799
I303
sS'par'
p1800
I2459
sS'psychopath'
p1801
I2315
sS'develop'
p1802
I1313
sS'harsh'
p1803
I2466
sS'etc'
p1804
I1264
sS'pay'
p1805
I549
sS'medic'
p1806
I710
sS'bowl'
p1807
I4271
sS'econom'
p1808
I2143
sS'check'
p1809
I2597
sS'poetic'
p1810
I1848
sS'heartbreak'
p1811
I1371
sS'speech'
p1812
I2842
sS'sucker'
p1813
I735
sS'damon'
p1814
I5186
sS'document'
p1815
I1085
sS'pal'
p1816
I138
sS'pan'
p1817
I2186
sS'status'
p1818
I1198
sS'exhaust'
p1819
I4106
sS'jeffrey'
p1820
I206
sS'finish'
p1821
I1877
sS'closest'
p1822
I2529
sS'applaud'
p1823
I1250
sS'assist'
p1824
I2687
sS'driver'
p1825
I3779
sS'someon'
p1826
I265
sS'companion'
p1827
I2065
sS'director'
p1828
I267
sS'capabl'
p1829
I1762
sS'drivel'
p1830
I4848
sS'disguis'
p1831
I2840
sS'unsatisfi'
p1832
I2038
sS'improv'
p1833
I1074
sS'defi'
p1834
I1514
sS'cartoon'
p1835
I3
sS'superbl'
p1836
I2643
sS'kudo'
p1837
I2107
sS'appropri'
p1838
I2158
sS'theater'
p1839
I1222
sS'pacino'
p1840
I5289
sS'denni'
p1841
I3770
sS'justifi'
p1842
I1103
sS'media'
p1843
I2734
sS'without'
p1844
I90
sS'lemmon'
p1845
I5844
sS'relief'
p1846
I2426
sS'vomit'
p1847
I5658
sS'model'
p1848
I2262
sS'reward'
p1849
I2286
sS'dimension'
p1850
I2156
sS'satir'
p1851
I16
sS'summer'
p1852
I717
sS'violenc'
p1853
I2335
sS'execut'
p1854
I2152
sS'money'
p1855
I173
sS'rest'
p1856
I856
sS'rita'
p1857
I5085
sS'violent'
p1858
I2581
sS'choreographi'
p1859
I4354
sS'kill'
p1860
I149
sS'aspect'
p1861
I1070
sS'ninja'
p1862
I4985
sS'touch'
p1863
I652
sS'polish'
p1864
I2860
sS'laughabl'
p1865
I3835
sS'outlin'
p1866
I4650
sS'speed'
p1867
I1555
sS'cardboard'
p1868
I5005
sS'halfway'
p1869
I3402
sS'concentr'
p1870
I1069
sS'indulg'
p1871
I3526
sS'death'
p1872
I564
sS'europ'
p1873
I2977
sS'hint'
p1874
I834
sS'rose'
p1875
I1310
sS'senseless'
p1876
I5239
sS'except'
p1877
I440
sS'littl'
p1878
I601
sS'cassidi'
p1879
I5311
sS'instrument'
p1880
I4018
sS'pile'
p1881
I3250
sS'treatment'
p1882
I1945
sS'exercis'
p1883
I1081
sS'notori'
p1884
I2749
sS'basi'
p1885
I3782
sS'vulner'
p1886
I2203
sS'bread'
p1887
I4396
sS'ross'
p1888
I2648
sS'earli'
p1889
I702
sS'boast'
p1890
I3669
sS'jake'
p1891
I5209
sS'around'
p1892
I634
sS'spectacular'
p1893
I2170
sS'read'
p1894
I409
sS'ladi'
p1895
I184
sS'virginia'
p1896
I2812
sS'nobl'
p1897
I3786
sS'dark'
p1898
I615
sS'earnest'
p1899
I3824
sS'chainsaw'
p1900
I4481
sS'goofi'
p1901
I3350
sS'spacey'
p1902
I5613
sS'insist'
p1903
I3042
sS'mom'
p1904
I722
sS'loos'
p1905
I2317
sS'world'
p1906
I108
sS'grim'
p1907
I1892
sS'dare'
p1908
I3326
sS'divorc'
p1909
I135
sS'exagger'
p1910
I2960
sS'macarthur'
p1911
I8989
sS'stranger'
p1912
I3198
sS'patrick'
p1913
I462
sS'twin'
p1914
I2320
sS'shelf'
p1915
I5683
sS'engross'
p1916
I3618
sS'benefit'
p1917
I428
sS'either'
p1918
I261
sS'glamor'
p1919
I2297
sS'kennedi'
p1920
I3256
sS'tower'
p1921
I3219
sS'manag'
p1922
I1748
sS'fulfil'
p1923
I1972
sS'cabl'
p1924
I3492
sS'doll'
p1925
I1047
sS'titan'
p1926
I241
sS'lena'
p1927
I7345
sS'sentinel'
p1928
I6820
sS'adequ'
p1929
I3072
sS'refresh'
p1930
I733
sS'racial'
p1931
I4166
sS'joan'
p1932
I3797
sS'fanat'
p1933
I3570
sS'bless'
p1934
I556
sS'slice'
p1935
I2714
sS'mood'
p1936
I824
sS'chronicl'
p1937
I3161
sS'confirm'
p1938
I586
sS'tube'
p1939
I2846
sS'definit'
p1940
I338
sS'slick'
p1941
I4460
sS'legal'
p1942
I2706
sS'moon'
p1943
I3107
sS'throat'
p1944
I1771
sS'evolv'
p1945
I1804
sS'exit'
p1946
I3877
sS'inject'
p1947
I3659
sS'unbeliev'
p1948
I1291
sS'gruesom'
p1949
I2744
sS'notabl'
p1950
I1024
sS'knife'
p1951
I4526
sS'refer'
p1952
I918
sS'watchabl'
p1953
I1914
sS'policeman'
p1954
I4186
sS'power'
p1955
I1195
sS'poem'
p1956
I1040
sS'sixti'
p1957
I4372
sS'garbag'
p1958
I1908
sS'ration'
p1959
I3788
sS'slaughter'
p1960
I4734
sS'mute'
p1961
I2075
sS'broken'
p1962
I3043
sS'wive'
p1963
I2778
sS'fulli'
p1964
I2279
sS'powel'
p1965
I3956
sS'throw'
p1966
I1928
sS'plastic'
p1967
I5079
sS'comparison'
p1968
I2440
sS'stone'
p1969
I2216
sS'central'
p1970
I1995
sS'island'
p1971
I2244
sS'gregori'
p1972
I2508
sS'marc'
p1973
I5713
sS'drag'
p1974
I2990
sS'luci'
p1975
I3805
sS'chop'
p1976
I412
sS'degre'
p1977
I2115
sS'journey'
p1978
I1456
sS'wolf'
p1979
I4882
sS'stand'
p1980
I476
sS'neighbor'
p1981
I2940
sS'act'
p1982
I181
sS'palma'
p1983
I6235
sS'industri'
p1984
I2387
sS'mean'
p1985
I1108
sS'road'
p1986
I2079
sS'routin'
p1987
I2752
sS'gari'
p1988
I3677
sS'romero'
p1989
I4411
sS'surviv'
p1990
I20
sS'nowher'
p1991
I2212
sS'darren'
p1992
I5794
sS'homeless'
p1993
I55
sS'strip'
p1994
I3665
sS'burton'
p1995
I1187
sS'england'
p1996
I3656
sS'nurs'
p1997
I501
sS'walken'
p1998
I6826
sS'charli'
p1999
I2807
sS'stare'
p2000
I606
sS'willi'
p2001
I2901
sS'area'
p2002
I2627
sS'aren'
p2003
I1443
sS'racism'
p2004
I76
sS'lol'
p2005
I926
sS'start'
p2006
I1089
sS'fascin'
p2007
I2020
sS'mindless'
p2008
I2408
sS'racist'
p2009
I1541
sS'low'
p2010
I477
sS'lot'
p2011
I806
sS'lou'
p2012
I2420
sS'premis'
p2013
I337
sS'valley'
p2014
I5036
sS'strict'
p2015
I4058
sS'lang'
p2016
I1919
sS'bottl'
p2017
I3475
sS'monoton'
p2018
I5855
sS'conclud'
p2019
I2570
sS'regard'
p2020
I2011
sS'younger'
p2021
I1653
sS'amongst'
p2022
I2463
sS'seagal'
p2023
I4786
sS'soprano'
p2024
I4036
sS'baffl'
p2025
I4319
sS'gore'
p2026
I1026
sS'gori'
p2027
I2709
sS'conclus'
p2028
I1029
sS'longer'
p2029
I692
sS'freddi'
p2030
I3468
sS'pull'
p2031
I251
sS'rush'
p2032
I366
sS'stoog'
p2033
I6184
sS'dirti'
p2034
I2580
sS'possibl'
p2035
I422
sS'sleazi'
p2036
I2731
sS'tripe'
p2037
I3545
sS'nostalg'
p2038
I2077
sS'vhs'
p2039
I2422
sS'polanski'
p2040
I6285
sS'unusu'
p2041
I669
sS'grasp'
p2042
I3293
sS'muddl'
p2043
I4436
sS'brando'
p2044
I4568
sS'age'
p2045
I48
sS'connect'
p2046
I151
sS'chaplin'
p2047
I4611
sS'gone'
p2048
I861
sS'taylor'
p2049
I2181
sS'fright'
p2050
I980
sS'cinema'
p2051
I1082
sS'certain'
p2052
I425
sS'pole'
p2053
I3912
sS'felix'
p2054
I3720
sS'censor'
p2055
I2553
sS'deep'
p2056
I1585
sS'general'
p2057
I727
sS'britain'
p2058
I2343
sS'file'
p2059
I768
sS'generat'
p2060
I609
sS'girlfriend'
p2061
I2511
sS'bob'
p2062
I4143
sS'deed'
p2063
I2674
sS'russel'
p2064
I3160
sS'nerd'
p2065
I4819
sS'film'
p2066
I158
sS'fill'
p2067
I1122
sS'tedious'
p2068
I3743
sS'cinematographi'
p2069
I936
sS'hart'
p2070
I5101
sS'maggi'
p2071
I4912
sS'idiot'
p2072
I243
sS'tasteless'
p2073
I5376
sS'compel'
p2074
I803
sS'green'
p2075
I2348
sS'event'
p2076
I385
sS'rubber'
p2077
I2232
sS'field'
p2078
I2325
sS'valid'
p2079
I2968
sS'compet'
p2080
I3010
sS'biko'
p2081
I14298
sS'immens'
p2082
I3987
sS'trash'
p2083
I938
sS'abysm'
p2084
I5724
sS'poor'
p2085
I1027
sS'championship'
p2086
I6115
sS'genuin'
p2087
I534
sS'hey'
p2088
I2333
sS'regardless'
p2089
I3134
sS'terri'
p2090
I467
sS'sequenc'
p2091
I961
sS'symbol'
p2092
I1000
sS'teeth'
p2093
I1873
sS'drift'
p2094
I2452
sS'lacklust'
p2095
I2500
sS'briefli'
p2096
I1989
sS'flower'
p2097
I3095
sS'peak'
p2098
I3125
sS'chris'
p2099
I2916
sS'peac'
p2100
I2361
sS'inexplic'
p2101
I1215
sS'reduc'
p2102
I3285
sS'philosoph'
p2103
I1961
sS'meander'
p2104
I4094
sS'studio'
p2105
I2486
sS'wife'
p2106
I1654
sS'directori'
p2107
I2479
sS'invest'
p2108
I3747
sS'mask'
p2109
I1768
sS'inevit'
p2110
I1578
sS'mass'
p2111
I1435
sS'adam'
p2112
I1434
sS'potenti'
p2113
I1395
sS'alright'
p2114
I2922
sS'escap'
p2115
I537
sS'degrad'
p2116
I5313
sS'roy'
p2117
I4104
sS'childish'
p2118
I3008
sS'represent'
p2119
I3694
sS'talki'
p2120
I2214
sS'sci'
p2121
I1127
sS'consider'
p2122
I461
sS'lumet'
p2123
I9998
sS'illustr'
p2124
I2607
sS'forbidden'
p2125
I1508
sS'breathtak'
p2126
I1672
sS'dollar'
p2127
I952
sS'month'
p2128
I89
sS'befriend'
p2129
I1968
sS'honesti'
p2130
I4062
sS'abil'
p2131
I1525
sS'cameron'
p2132
I1190
sS'follow'
p2133
I273
sS'princ'
p2134
I3960
sS'wendi'
p2135
I7334
sS'children'
p2136
I1625
sS'unbear'
p2137
I3926
sS'ron'
p2138
I3670
sS'laid'
p2139
I3607
sS'spirit'
p2140
I1534
sS'tail'
p2141
I2593
sS'program'
p2142
I7
sS'humili'
p2143
I4839
sS'shameless'
p2144
I3787
sS'sustain'
p2145
I1831
sS'countless'
p2146
I3681
sS'cgi'
p2147
I2642
sS'introduc'
p2148
I635
sS'case'
p2149
I584
sS'godfath'
p2150
I1174
sS'woman'
p2151
I128
sS'straightforward'
p2152
I732
sS'song'
p2153
I1319
sS'far'
p2154
I50
sS'horror'
p2155
I906
sS'fat'
p2156
I1016
sS'skit'
p2157
I4404
sS'util'
p2158
I935
sS'candid'
p2159
I3708
sS'fan'
p2160
I479
sS'fall'
p2161
I245
sS'veri'
p2162
I248
sS'han'
p2163
I4863
sS'ticket'
p2164
I1593
sS'strang'
p2165
I619
sS'fourth'
p2166
I3457
sS'steve'
p2167
I3461
sS'heaven'
p2168
I877
sS'harri'
p2169
I3283
sS'louis'
p2170
I3544
sS'list'
p2171
I2394
sS'signific'
p2172
I1938
sS'dinosaur'
p2173
I3392
sS'sand'
p2174
I3790
sS'mile'
p2175
I1621
sS'small'
p2176
I822
sS'lisa'
p2177
I474
sS'hawk'
p2178
I2355
sS'flick'
p2179
I981
sS'enterpris'
p2180
I5277
sS'neighborhood'
p2181
I1802
sS'ten'
p2182
I937
sS'extraordinari'
p2183
I2664
sS'tea'
p2184
I1513
sS'ritter'
p2185
I4604
sS'qualifi'
p2186
I2705
sS'past'
p2187
I626
sS'narrat'
p2188
I817
sS'pressur'
p2189
I79
sS'design'
p2190
I1636
sS'lawyer'
p2191
I195
sS'pass'
p2192
I1880
sS'flashback'
p2193
I1084
sS'excit'
p2194
I2080
sS'sue'
p2195
I2702
sS'abc'
p2196
I3346
sS'stood'
p2197
I2474
sS'sub'
p2198
I1983
sS'richard'
p2199
I2207
sS'clock'
p2200
I3119
sS'sun'
p2201
I2190
sS'section'
p2202
I1795
sS'dirt'
p2203
I4710
sS'abl'
p2204
I336
sS'brief'
p2205
I1767
sS'milk'
p2206
I3678
sS'cinemat'
p2207
I1407
sS'delet'
p2208
I414
sS'version'
p2209
I625
sS'deepli'
p2210
I1561
sS'public'
p2211
I1609
sS'contrast'
p2212
I1986
sS'essenc'
p2213
I630
sS'mystic'
p2214
I5011
sS'hasn'
p2215
I3066
sS'full'
p2216
I527
sS'themselv'
p2217
I2740
sS'rehears'
p2218
I4345
sS'christi'
p2219
I6572
sS'rochest'
p2220
I4971
sS'theatric'
p2221
I2518
sS'tragedi'
p2222
I1325
sS'suspici'
p2223
I3838
sS'behaviour'
p2224
I4195
sS'ranger'
p2225
I4784
sS'shouldn'
p2226
I885
sS'middl'
p2227
I2592
sS'immort'
p2228
I4484
sS'excess'
p2229
I1228
sS'greed'
p2230
I4911
sS'iraq'
p2231
I78
sS'legend'
p2232
I1293
sS'valu'
p2233
I1682
sS'pleasant'
p2234
I1954
sS'search'
p2235
I1480
sS'meryl'
p2236
I3817
sS'ahead'
p2237
I1750
sS'miseri'
p2238
I3859
sS'jim'
p2239
I2854
sS'whine'
p2240
I4053
sS'brutal'
p2241
I703
sS'observ'
p2242
I157
sS'prior'
p2243
I159
sS'amount'
p2244
I628
sS'heroin'
p2245
I2306
sS'pick'
p2246
I1209
sS'action'
p2247
I331
sS'corps'
p2248
I5223
sS'creepi'
p2249
I451
sS'bulli'
p2250
I4455
sS'via'
p2251
I2972
sS'depart'
p2252
I2424
sS'declin'
p2253
I2679
sS'lawrenc'
p2254
I2545
sS'transit'
p2255
I667
sS'africa'
p2256
I4194
sS'sadist'
p2257
I2575
sS'put'
p2258
I862
sS'voyag'
p2259
I1359
sS'inappropri'
p2260
I3354
sS'famili'
p2261
I1281
sS'demis'
p2262
I1676
sS'gratuit'
p2263
I3059
sS'establish'
p2264
I434
sS'memor'
p2265
I790
sS'select'
p2266
I2381
sS'horrid'
p2267
I8623
sS'aggress'
p2268
I2635
sS'eye'
p2269
I1159
sS'proceed'
p2270
I1614
sS'harmless'
p2271
I4097
sS'distinct'
p2272
I1690
sS'liber'
p2273
I1807
sS'faint'
p2274
I2710
sS'regist'
p2275
I2864
sS'two'
p2276
I219
sS'bizarr'
p2277
I707
sS'pearl'
p2278
I3767
sS'anger'
p2279
I2458
sS'eyr'
p2280
I2296
sS'morn'
p2281
I1610
sS'bash'
p2282
I1836
sS'gorgeous'
p2283
I1305
sS'taken'
p2284
I622
sS'chicken'
p2285
I4483
sS'kick'
p2286
I2631
sS'minor'
p2287
I741
sS'teen'
p2288
I1537
sS'flat'
p2289
I246
sS'flaw'
p2290
I232
sS'diamond'
p2291
I1353
sS'desir'
p2292
I373
sS'lush'
p2293
I4237
sS'hundr'
p2294
I1219
sS'leonard'
p2295
I4571
sS'chuckl'
p2296
I3584
sS'stick'
p2297
I831
sS'broke'
p2298
I913
sS'particular'
p2299
I830
sS'magnific'
p2300
I1369
sS'compani'
p2301
I2299
sS'doom'
p2302
I1021
sS'glad'
p2303
I1155
sS'town'
p2304
I1893
sS'dictat'
p2305
I2060
sS'none'
p2306
I190
sS'hour'
p2307
I569
sS'hous'
p2308
I1038
sS'phillip'
p2309
I1341
sS'der'
p2310
I3000
sS'daisi'
p2311
I3933
sS'histori'
p2312
I1097
sS'remain'
p2313
I2349
sS'bias'
p2314
I3466
sS'nine'
p2315
I728
sS'morgan'
p2316
I3577
sS'learn'
p2317
I1162
sS'abandon'
p2318
I693
sS'motiv'
p2319
I508
sS'male'
p2320
I1667
sS'dee'
p2321
I4774
sS'explod'
p2322
I4422
sS'orlean'
p2323
I4420
sS'shark'
p2324
I3527
sS'prompt'
p2325
I787
sS'challeng'
p2326
I1418
sS'share'
p2327
I1298
sS'accept'
p2328
I1213
sS'minimum'
p2329
I3687
sS'explor'
p2330
I1478
sS'explos'
p2331
I2588
sS'guitar'
p2332
I4293
sS'sharp'
p2333
I2304
sS'dress'
p2334
I1650
sS'victori'
p2335
I4280
sS'garden'
p2336
I3514
sS'huge'
p2337
I1318
sS'cours'
p2338
I919
sS'court'
p2339
I2494
sS'goal'
p2340
I321
sS'awkward'
p2341
I872
sS'loui'
p2342
I1548
sS'rather'
p2343
I734
sS'anoth'
p2344
I654
sS'comfort'
p2345
I2851
sS'hugh'
p2346
I2417
sS'perhap'
p2347
I563
sS'everyday'
p2348
I1985
sS'wax'
p2349
I6575
sS'ish'
p2350
I4573
sS'lift'
p2351
I3331
sS'reject'
p2352
I3636
sS'reviv'
p2353
I3144
sS'simpl'
p2354
I1290
sS'heel'
p2355
I3857
sS'hopeless'
p2356
I1604
sS'plant'
p2357
I510
sS'okay'
p2358
I971
sS'rude'
p2359
I2584
sS'internet'
p2360
I3432
sS'reflect'
p2361
I1267
sS'plane'
p2362
I2998
sS'embrac'
p2363
I2149
sS'blood'
p2364
I2465
sS'numb'
p2365
I4659
sS'seduc'
p2366
I3026
sS'pat'
p2367
I3046
sS'associ'
p2368
I482
sS'bleak'
p2369
I3377
sS'circumst'
p2370
I1433
sS'short'
p2371
I378
sS'happi'
p2372
I2028
sS'confus'
p2373
I596
sS'author'
p2374
I1627
sS'ambigu'
p2375
I2559
sS'caus'
p2376
I73
sS'imageri'
p2377
I1858
sS'ego'
p2378
I3752
sS'dread'
p2379
I539
sS'shade'
p2380
I4305
sS'cigarett'
p2381
I1668
sS'dream'
p2382
I1465
sS'lampoon'
p2383
I5818
sS'astair'
p2384
I4400
sS'elvi'
p2385
I6373
sS'mexican'
p2386
I998
sS'help'
p2387
I61
sS'leigh'
p2388
I2191
sS'pant'
p2389
I4079
sS'soon'
p2390
I705
sS'tempt'
p2391
I3622
sS'trade'
p2392
I1999
sS'held'
p2393
I779
sS'logan'
p2394
I4468
sS'paper'
p2395
I1576
sS'scott'
p2396
I1884
sS'erot'
p2397
I1841
sS'hell'
p2398
I756
sS'suffer'
p2399
I590
sS'style'
p2400
I1991
sS'matthew'
p2401
I2658
sS'pray'
p2402
I3629
sS'wilder'
p2403
I5534
sS'alli'
p2404
I2975
sS'wipe'
p2405
I2965
sS'late'
p2406
I388
sS'resort'
p2407
I1429
sS'astonish'
p2408
I1531
sS'stephen'
p2409
I3637
sS'pad'
p2410
I2967
sS'delici'
p2411
I2708
sS'sloppi'
p2412
I3089
sS'might'
p2413
I436
sS'alter'
p2414
I3751
sS'fool'
p2415
I3106
sS'wouldn'
p2416
I1696
sS'ant'
p2417
I4114
sS'good'
p2418
I192
sS'return'
p2419
I420
sS'food'
p2420
I4322
sS'sentenc'
p2421
I1088
sS'gadget'
p2422
I2140
sS'hunter'
p2423
I1346
sS'mesmer'
p2424
I3015
sS'synopsi'
p2425
I406
sS'charismat'
p2426
I1143
sS'somebodi'
p2427
I3252
sS'foot'
p2428
I559
sS'disgrac'
p2429
I2538
sS'adventur'
p2430
I1357
sS'bollywood'
p2431
I2450
sS'complain'
p2432
I891
sS'bigger'
p2433
I1468
sS'undeni'
p2434
I4222
sS'eventu'
p2435
I544
sS'holiday'
p2436
I4938
sS'pregnant'
p2437
I1060
sS'wallac'
p2438
I3133
sS'stiff'
p2439
I3523
sS'authent'
p2440
I690
sS'mysteri'
p2441
I308
sS'easili'
p2442
I228
sS'achiev'
p2443
I320
sS'naughti'
p2444
I3273
sS'gender'
p2445
I1966
sS'found'
p2446
I155
sS'friendship'
p2447
I782
sS'adolesc'
p2448
I5337
sS'trailer'
p2449
I2933
sS'pretenti'
p2450
I2294
sS'alec'
p2451
I4630
sS'week'
p2452
I1210
sS'harm'
p2453
I3040
sS'dig'
p2454
I2577
sS'neil'
p2455
I2135
sS'mental'
p2456
I418
sS'weight'
p2457
I2797
sS'needless'
p2458
I2123
sS'stiller'
p2459
I8520
sS'fish'
p2460
I3339
sS'hard'
p2461
I753
sS'idea'
p2462
I1121
sS'terrifi'
p2463
I1049
sS'realli'
p2464
I407
sS'heavi'
p2465
I1230
sS'persona'
p2466
I3234
sS'expect'
p2467
I45
sS'fist'
p2468
I3704
sS'todd'
p2469
I5836
sS'energi'
p2470
I2302
sS'beyond'
p2471
I1728
sS'hartley'
p2472
I5196
sS'orient'
p2473
I904
sS'wacki'
p2474
I2838
sS'massiv'
p2475
I2064
sS'safeti'
p2476
I3548
sS'alcohol'
p2477
I2455
sS'item'
p2478
I3022
sS'sutherland'
p2479
I5187
sS'robert'
p2480
I2040
sS'publish'
p2481
I3529
sS'research'
p2482
I1094
sS'bubbl'
p2483
I4340
sS'perri'
p2484
I2659
sS'health'
p2485
I1803
sS'hill'
p2486
I1344
sS'print'
p2487
I1982
sS'ass'
p2488
I3361
sS'difficulti'
p2489
I2435
sS'pun'
p2490
I2618
sS'belief'
p2491
I2836
sS'rambo'
p2492
I5126
sS'advanc'
p2493
I2761
sS'friday'
p2494
I339
sS'differ'
p2495
I745
sS'rocki'
p2496
I5127
sS'lifestyl'
p2497
I689
sS'cooki'
p2498
I3604
sS'reason'
p2499
I899
sS'base'
p2500
I383
sS'marion'
p2501
I6493
sS'believ'
p2502
I15
sS'dire'
p2503
I5539
sS'dud'
p2504
I4949
sS'ask'
p2505
I698
sS'teach'
p2506
I12
sS'heroic'
p2507
I1141
sS'jew'
p2508
I3289
sS'thrown'
p2509
I119
sS'driven'
p2510
I3004
sS'thread'
p2511
I1405
sS'devoid'
p2512
I3464
sS'sitcom'
p2513
I2661
sS'struggl'
p2514
I632
sS'revolutionari'
p2515
I2146
sS'sicken'
p2516
I4385
sS'american'
p2517
I648
sS'campbel'
p2518
I4493
sS'kung'
p2519
I1876
sS'threat'
p2520
I3213
sS'testament'
p2521
I3215
sS'lifetim'
p2522
I1457
sS'fallen'
p2523
I1129
sS'assign'
p2524
I3287
sS'feed'
p2525
I3871
sS'sympathi'
p2526
I2788
sS'major'
p2527
I1289
sS'dont'
p2528
I3459
sS'prevent'
p2529
I2632
sS'feel'
p2530
I597
sS'exchang'
p2531
I4074
sS'number'
p2532
I535
sS'feet'
p2533
I2225
sS'elder'
p2534
I986
sS'sailor'
p2535
I139
sS'done'
p2536
I561
sS'construct'
p2537
I1402
sS'blank'
p2538
I1822
sS'bland'
p2539
I3535
sS'horribl'
p2540
I2700
sS'miss'
p2541
I602
sS'excruci'
p2542
I4961
sS'fanci'
p2543
I1785
sS'simultan'
p2544
I3491
sS'thunderbird'
p2545
I11262
sS'guess'
p2546
I1296
sS'restor'
p2547
I3292
sS'fuller'
p2548
I2505
sS'guest'
p2549
I992
sS'jet'
p2550
I3371
sS'script'
p2551
I858
sS'interact'
p2552
I2048
sS'least'
p2553
I613
sS'paint'
p2554
I2117
sS'stori'
p2555
I252
sS'station'
p2556
I1816
sS'storm'
p2557
I2192
sS'crow'
p2558
I3116
sS'illeg'
p2559
I2579
sS'twenti'
p2560
I889
sS'scheme'
p2561
I1806
sS'southern'
p2562
I3169
sS'store'
p2563
I1212
sS'alleg'
p2564
I923
sS'elvira'
p2565
I3300
sS'option'
p2566
I2487
sS'relationship'
p2567
I435
sS'behind'
p2568
I2069
sS'hotel'
p2569
I4371
sS'park'
p2570
I3223
sS'pari'
p2571
I1862
sS'employ'
p2572
I3997
sS'dentist'
p2573
I2733
sS'part'
p2574
I293
sS'boredom'
p2575
I2293
sS'grace'
p2576
I2716
sS'fred'
p2577
I3832
sS'king'
p2578
I259
sS'kind'
p2579
I747
sS'grew'
p2580
I1471
sS'contrari'
p2581
I2200
sS'whenev'
p2582
I2434
sS'remot'
p2583
I2119
sS'gotten'
p2584
I1664
sS'remov'
p2585
I4888
sS'grey'
p2586
I2076
sS'vocal'
p2587
I4046
sS'youth'
p2588
I493
sS'bride'
p2589
I2287
sS'asham'
p2590
I1923
sS'stalk'
p2591
I1769
sS'hyde'
p2592
I1367
sS'stale'
p2593
I3233
sS'toward'
p2594
I1217
sS'danc'
p2595
I1039
sS'weapon'
p2596
I3157
sS'dana'
p2597
I2195
sS'mickey'
p2598
I4031
sS'comput'
p2599
I97
sS'atmospher'
p2600
I868
sS'reunion'
p2601
I4845
sS'luckili'
p2602
I3614
sS'novak'
p2603
I4622
sS'packag'
p2604
I3352
sS'blond'
p2605
I2340
sS'propos'
p2606
I4249
sS'dedic'
p2607
I1422
sS'parodi'
p2608
I3113
sS'karl'
p2609
I3755
sS'tierney'
p2610
I9531
sS'sell'
p2611
I199
sS'imagin'
p2612
I740
sS'wilson'
p2613
I142
sS'built'
p2614
I2259
sS'zero'
p2615
I1327
sS'commentari'
p2616
I3050
sS'self'
p2617
I2176
sS'cave'
p2618
I3001
sS'scotland'
p2619
I4593
sS'couch'
p2620
I2378
sS'lit'
p2621
I4334
sS'also'
p2622
I196
sS'unintent'
p2623
I3274
sS'lip'
p2624
I2712
sS'build'
p2625
I118
sS'homicid'
p2626
I4974
sS'schedul'
p2627
I3595
sS'buff'
p2628
I1756
sS'play'
p2629
I105
sS'distribut'
p2630
I2600
sS'choos'
p2631
I2747
sS'reach'
p2632
I146
sS'mixtur'
p2633
I2976
sS'cinematograph'
p2634
I2129
sS'react'
p2635
I1234
sS'yawn'
p2636
I6094
sS'brooklyn'
p2637
I2963
sS'charm'
p2638
I1033
sS'plan'
p2639
I60
sS'eaten'
p2640
I5472
sS'sandra'
p2641
I315
sS'kay'
p2642
I2412
sS'sirk'
p2643
I3264
sS'charg'
p2644
I3311
sS'amaz'
p2645
I908
sS'carla'
p2646
I6007
sS'clear'
p2647
I812
sS'cover'
p2648
I1703
sS'destruct'
p2649
I1799
sS'tongu'
p2650
I2305
sS'resembl'
p2651
I2120
sS'barrel'
p2652
I3893
sS'notch'
p2653
I823
sS'blend'
p2654
I1117
sS'profan'
p2655
I5246
sS'awesom'
p2656
I1349
sS'visibl'
p2657
I4709
sS'taxi'
p2658
I5147
sS'ridicul'
p2659
I1013
sS'gold'
p2660
I2798
sS'melodi'
p2661
I3781
sS'fond'
p2662
I1814
sS'hopper'
p2663
I8771
sS'session'
p2664
I3473
sS'alert'
p2665
I4077
sS'barrymor'
p2666
I6700
sS'uncov'
p2667
I3820
sS'stalker'
p2668
I5792
sS'coaster'
p2669
I6650
sS'reput'
p2670
I3950
sS'fine'
p2671
I355
sS'find'
p2672
I399
sS'impact'
p2673
I789
sS'cell'
p2674
I2722
sS'giant'
p2675
I1115
sS'randi'
p2676
I5614
sS'pretti'
p2677
I316
sS'nervous'
p2678
I1811
sS'ruin'
p2679
I1746
sS'writer'
p2680
I268
sS'solut'
p2681
I2015
sS'paranoia'
p2682
I481
sS'scoobi'
p2683
I9481
sS'experiment'
p2684
I3597
sS'fulci'
p2685
I3462
sS'betray'
p2686
I2833
sS'factor'
p2687
I1200
sS'bullet'
p2688
I4531
sS'halloween'
p2689
I5597
sS'unhappi'
p2690
I3562
sS'hip'
p2691
I4877
sS'ballet'
p2692
I4402
sS'hit'
p2693
I1360
sS'albeit'
p2694
I2611
sS'luke'
p2695
I3929
sS'financ'
p2696
I1796
sS'swing'
p2697
I3620
sS'famous'
p2698
I1397
sS'simplist'
p2699
I4478
sS'actress'
p2700
I277
sS'donald'
p2701
I3801
sS'basement'
p2702
I3253
sS'ambiti'
p2703
I4251
sS'dose'
p2704
I3176
sS'sunni'
p2705
I4752
sS'target'
p2706
I3277
sS'uncomfort'
p2707
I3691
sS'homag'
p2708
I3517
sS'timeless'
p2709
I1530
sS'poverti'
p2710
I1894
sS'enemi'
p2711
I1519
sS'common'
p2712
I960
sS'hype'
p2713
I1473
sS'vincent'
p2714
I3986
sS'cri'
p2715
I600
sS'rivet'
p2716
I1315
sS'wrote'
p2717
I523
sS'cole'
p2718
I4183
sS'set'
p2719
I93
sS'art'
p2720
I345
sS'dump'
p2721
I1178
sS'creator'
p2722
I3683
sS'overwhelm'
p2723
I1581
sS'sex'
p2724
I999
sS'tip'
p2725
I4623
sS'see'
p2726
I25
sS'arc'
p2727
I1800
sS'dumb'
p2728
I560
sS'futurist'
p2729
I4393
sS'sea'
p2730
I3261
sS'laurel'
p2731
I3725
sS'tender'
p2732
I161
sS'reserv'
p2733
I879
sS'whatsoev'
p2734
I1221
sS'lee'
p2735
I3136
sS'seal'
p2736
I4048
sS'shower'
p2737
I2078
sS'spiritu'
p2738
I2144
sS'horrif'
p2739
I591
sS'expert'
p2740
I1669
sS'merci'
p2741
I5074
sS'baldwin'
p2742
I6439
sS'someth'
p2743
I167
sS'grandmoth'
p2744
I3673
sS'particip'
p2745
I3167
sS'debat'
p2746
I2727
sS'woo'
p2747
I2277
sS'won'
p2748
I748
sS'various'
p2749
I813
sS'flame'
p2750
I3775
sS'experi'
p2751
I1050
sS'compliment'
p2752
I1962
sS'altern'
p2753
I2037
sS'blow'
p2754
I1424
sS'latin'
p2755
I3703
sS'appreci'
p2756
I933
sS'numer'
p2757
I3162
sS'sold'
p2758
I1917
sS'sole'
p2759
I1006
sS'aspir'
p2760
I3791
sS'isol'
p2761
I697
sS'outfit'
p2762
I1658
sS'incident'
p2763
I4027
sS'succeed'
p2764
I81
sS'infam'
p2765
I2504
sS'arrang'
p2766
I788
sS'solv'
p2767
I3439
sS'creatur'
p2768
I2301
sS'melodrama'
p2769
I1229
sS'purpl'
p2770
I2354
sS'dane'
p2771
I7578
sS'popul'
p2772
I996
sS'oppress'
p2773
I5564
sS'satisfi'
p2774
I1446
sS'last'
p2775
I681
sS'keaton'
p2776
I5409
sS'parad'
p2777
I2030
sS'alon'
p2778
I888
sS'natali'
p2779
I4284
sS'grudg'
p2780
I5161
sS'foreign'
p2781
I1911
sS'roman'
p2782
I2756
sS'context'
p2783
I1904
sS'forgotten'
p2784
I1287
sS'bond'
p2785
I1502
sS'whole'
p2786
I29
sS'cynic'
p2787
I1239
sS'load'
p2788
I1562
sS'simpli'
p2789
I920
sS'distress'
p2790
I1617
sS'point'
p2791
I860
sS'sweet'
p2792
I1705
sS'bela'
p2793
I2506
sS'sweep'
p2794
I1455
sS'unrealist'
p2795
I1391
sS'hollow'
p2796
I4335
sS'acclaim'
p2797
I381
sS'provok'
p2798
I2222
sS'suppli'
p2799
I1238
sS'rave'
p2800
I3080
sS'mistak'
p2801
I2886
sS'throughout'
p2802
I792
sS'provoc'
p2803
I1854
sS'communiti'
p2804
I2524
sS'belt'
p2805
I2748
sS'worthless'
p2806
I1895
sS'forgiv'
p2807
I2118
sS'digniti'
p2808
I2443
sS'dealt'
p2809
I2472
sS'duo'
p2810
I3282
sS'celluloid'
p2811
I3323
sS'dub'
p2812
I1028
sS'overlook'
p2813
I2173
sS'devic'
p2814
I2137
sS'due'
p2815
I459
sS'empti'
p2816
I1725
sS'miser'
p2817
I1727
sS'runner'
p2818
I5112
sS'secret'
p2819
I403
sS'newcom'
p2820
I5214
sS'damn'
p2821
I757
sS'ireland'
p2822
I1600
sS'damm'
p2823
I6873
sS'threaten'
p2824
I1641
sS'homosexu'
p2825
I2091
sS'nois'
p2826
I3427
sS'walter'
p2827
I3408
sS'anthoni'
p2828
I588
sS'invis'
p2829
I4653
sS'flight'
p2830
I148
sS'champion'
p2831
I5184
sS'gay'
p2832
I443
sS'buck'
p2833
I3249
sS'fire'
p2834
I1061
sS'infect'
p2835
I2366
sS'imag'
p2836
I730
sS'citizen'
p2837
I237
sS'gas'
p2838
I543
sS'remark'
p2839
I2683
sS'gap'
p2840
I3168
sS'fund'
p2841
I3335
sS'vanc'
p2842
I4980
sS'gal'
p2843
I2825
sS'understand'
p2844
I1102
sS'demand'
p2845
I945
sS'gag'
p2846
I2425
sS'standout'
p2847
I2739
sS'repetit'
p2848
I545
sS'educ'
p2849
I1870
sS'struck'
p2850
I2224
sS'invit'
p2851
I988
sS'scottish'
p2852
I4647
sS'hitchcock'
p2853
I464
sS'politician'
p2854
I2469
sS'look'
p2855
I218
sS'solid'
p2856
I1410
sS'reunit'
p2857
I1521
sS'straight'
p2858
I1742
sS'bill'
p2859
I1347
sS'budget'
p2860
I1197
sS'crazi'
p2861
I2384
sS'rope'
p2862
I1940
sS'pace'
p2863
I348
sS'smart'
p2864
I1903
sS'abov'
p2865
I863
sS'error'
p2866
I3356
sS'fun'
p2867
I1246
sS'fleet'
p2868
I4065
sS'vice'
p2869
I4873
sS'robin'
p2870
I297
sS'pack'
p2871
I2571
sS'prejudic'
p2872
I1935
sS'grip'
p2873
I368
sS'pound'
p2874
I4205
sS'readi'
p2875
I1237
sS'genr'
p2876
I809
sS'von'
p2877
I3915
sS'owen'
p2878
I4550
sS'demon'
p2879
I3911
sS'astound'
p2880
I3685
sS'rip'
p2881
I2695
sS'shoddi'
p2882
I3320
sS'centuri'
p2883
I1176
sS'rid'
p2884
I2209
sS'vanish'
p2885
I2980
sS'tribe'
p2886
I5495
sS'chase'
p2887
I2359
sS'oper'
p2888
I3497
sS'decor'
p2889
I1580
sS'irrelev'
p2890
I4644
sS'shaw'
p2891
I2126
sS'grant'
p2892
I2645
sS'belong'
p2893
I450
sS'reign'
p2894
I5088
sS'butcher'
p2895
I3917
sS'funni'
p2896
I204
sS'lengthi'
p2897
I3726
sS'substanc'
p2898
I4506
sS'itali'
p2899
I4745
sS'seduct'
p2900
I3258
sS'grand'
p2901
I2194
sS'ruth'
p2902
I1490
sS'conflict'
p2903
I532
sS'higher'
p2904
I1946
sS'climact'
p2905
I4381
sS'lie'
p2906
I1543
sS'bonus'
p2907
I796
sS'blair'
p2908
I4363
sS'wherea'
p2909
I1863
sS'yesterday'
p2910
I2853
sS'estat'
p2911
I3247
sS'moment'
p2912
I278
sS'user'
p2913
I1253
sS'priceless'
p2914
I1918
sS'tiresom'
p2915
I4867
sS'chang'
p2916
I638
sS'recent'
p2917
I301
sS'lower'
p2918
I1276
sS'task'
p2919
I958
sS'equival'
p2920
I2823
sS'eleg'
p2921
I1715
sS'kelli'
p2922
I4670
sS'entri'
p2923
I984
sS'chemistri'
p2924
I1364
sS'spent'
p2925
I1670
sS'maker'
p2926
I2081
sS'person'
p2927
I333
sS'cheer'
p2928
I2177
sS'chees'
p2929
I3706
sS'expens'
p2930
I2267
sS'elev'
p2931
I3823
sS'nicholson'
p2932
I5535
sS'brillianc'
p2933
I1441
sS'tast'
p2934
I1265
sS'spend'
p2935
I687
sS'weakest'
p2936
I3075
sS'explan'
p2937
I1278
sS'coup'
p2938
I5294
sS'detract'
p2939
I1137
sS'hardi'
p2940
I5923
sS'navi'
p2941
I7655
sS'obscur'
p2942
I2057
sS'indic'
p2943
I2955
sS'collabor'
p2944
I2528
sS'shape'
p2945
I1577
sS'stunt'
p2946
I2183
sS'love'
p2947
I150
sS'sullivan'
p2948
I4558
sS'cut'
p2949
I282
sS'cur'
p2950
I7781
sS'cup'
p2951
I2590
sS'eeri'
p2952
I763
sS'rambl'
p2953
I4829
sS'sinist'
p2954
I4025
sS'eager'
p2955
I3654
sS'cue'
p2956
I4540
sS'improb'
p2957
I3358
sS'rear'
p2958
I3964
sS'appli'
p2959
I2783
sS'snap'
p2960
I4370
sS'derek'
p2961
I4330
sS'subsequ'
p2962
I3471
sS'useless'
p2963
I4118
sS'bin'
p2964
I3193
sS'complaint'
p2965
I263
sS'australia'
p2966
I3821
sS'march'
p2967
I3165
sS'format'
p2968
I2098
sS'big'
p2969
I220
sS'lincoln'
p2970
I6255
sS'moodi'
p2971
I927
sS'game'
p2972
I1594
sS'quest'
p2973
I3268
sS'insert'
p2974
I2672
sS'emma'
p2975
I4235
sS'bit'
p2976
I280
sS'characterist'
p2977
I289
sS'knock'
p2978
I3025
sS'lost'
p2979
I72
sS'semi'
p2980
I665
sS'confront'
p2981
I2393
sS'resolv'
p2982
I3553
sS'heart'
p2983
I533
sS'collect'
p2984
I3216
sS'princip'
p2985
I2074
sS'bbc'
p2986
I4435
sS'dreck'
p2987
I4543
sS'donna'
p2988
I449
sS'popular'
p2989
I685
sS'stylish'
p2990
I2595
sS'foolish'
p2991
I3913
sS'minist'
p2992
I4433
sS'encount'
p2993
I2677
sS'sketch'
p2994
I1501
sS'mighti'
p2995
I2496
sS'often'
p2996
I226
sS'door'
p2997
I2774
sS'acknowledg'
p2998
I2514
sS'creation'
p2999
I1659
sS'back'
p3000
I375
sS'global'
p3001
I3680
sS'understood'
p3002
I3203
sS'martian'
p3003
I6310
sS'fabric'
p3004
I2527
sS'sight'
p3005
I1526
sS'mirror'
p3006
I3845
sS'curious'
p3007
I2858
sS'surpris'
p3008
I1301
sS'pale'
p3009
I3695
sS'scale'
p3010
I2624
sS'expedit'
p3011
I5502
sS'dull'
p3012
I2986
sS'roth'
p3013
I3415
sS'montag'
p3014
I2398
sS'prison'
p3015
I3518
sS'shall'
p3016
I4073
sS'per'
p3017
I307
sS'prop'
p3018
I4286
sS'religion'
p3019
I2485
sS'pen'
p3020
I490
sS'larg'
p3021
I1022
sS'carradin'
p3022
I4999
sS'slash'
p3023
I1770
sS'mummi'
p3024
I1116
sS'carpent'
p3025
I2753
sS'epic'
p3026
I1225
sS'worship'
p3027
I2763
sS'anna'
p3028
I445
sS'nose'
p3029
I1474
sS'machin'
p3030
I465
sS'patient'
p3031
I969
sS'rub'
p3032
I2456
sS'scriptwrit'
p3033
I1793
sS'fed'
p3034
I3395
sS'step'
p3035
I123
sS'patienc'
p3036
I5172
sS'othello'
p3037
I4044
sS'santa'
p3038
I4904
sS'metaphor'
p3039
I1801
sS'carol'
p3040
I3776
sS'fenc'
p3041
I4209
sS'impos'
p3042
I2247
sS'wealth'
p3043
I1382
sS'shine'
p3044
I781
sS'faith'
p3045
I910
sS'juvenil'
p3046
I3664
sS'deceas'
p3047
I2251
sS'morri'
p3048
I141
sS'materi'
p3049
I1694
sS'memori'
p3050
I1486
sS'virus'
p3051
I4664
sS'page'
p3052
I3598
sS'drama'
p3053
I304
sS'revolut'
p3054
I1994
sS'masterpiec'
p3055
I1191
sS'dialog'
p3056
I1126
sS'stuart'
p3057
I1445
sS'wanna'
p3058
I3304
sS'block'
p3059
I1792
sS'charl'
p3060
I2342
sS'predat'
p3061
I3702
sS'miracl'
p3062
I3154
sS'hudson'
p3063
I2895
sS'real'
p3064
I335
sS'primarili'
p3065
I1596
sS'irrit'
p3066
I4231
sS'farc'
p3067
I3086
sS'dude'
p3068
I3327
sS'within'
p3069
I642
sS'likabl'
p3070
I1007
sS'slug'
p3071
I7341
sS'drain'
p3072
I4184
sS'savag'
p3073
I2615
sS'steven'
p3074
I3388
sS'ensur'
p3075
I3849
sS'lesson'
p3076
I100
sS'artifici'
p3077
I2402
sS'underst'
p3078
I608
sS'alison'
p3079
I6824
sS'occupi'
p3080
I3910
sS'span'
p3081
I4759
sS'verbal'
p3082
I3802
sS'grave'
p3083
I3306
sS'lone'
p3084
I825
sS'percept'
p3085
I3411
sS'fast'
p3086
I930
sS'custom'
p3087
I1996
sS'dian'
p3088
I5443
sS'camera'
p3089
I604
sS'includ'
p3090
I127
sS'exceed'
p3091
I2532
sS'suit'
p3092
I2053
sS'forward'
p3093
I644
sS'maria'
p3094
I5361
sS'implaus'
p3095
I4510
sS'larri'
p3096
I209
sS'reev'
p3097
I3696
sS'jewish'
p3098
I2876
sS'poster'
p3099
I898
sS'inept'
p3100
I2502
sS'simplic'
p3101
I3846
sS'boyl'
p3102
I5245
sS'cloth'
p3103
I188
sS'link'
p3104
I3055
sS'translat'
p3105
I2174
sS'scope'
p3106
I2280
sS'russian'
p3107
I2938
sS'line'
p3108
I41
sS'murphi'
p3109
I4589
sS'reel'
p3110
I2929
sS'angri'
p3111
I2241
sS'jacki'
p3112
I3380
sS'patriot'
p3113
I3244
sS'consist'
p3114
I2326
sS'grinch'
p3115
I10459
sS'planet'
p3116
I1734
sS'sum'
p3117
I3756
sS'repli'
p3118
I3728
sS'highlight'
p3119
I2737
sS'similar'
p3120
I1041
sS'alarm'
p3121
I3182
sS'bever'
p3122
I6682
sS'joel'
p3123
I5694
sS'derang'
p3124
I487
sS'flop'
p3125
I3224
sS'constant'
p3126
I557
sS'curs'
p3127
I3094
sS'metal'
p3128
I1629
sS'chan'
p3129
I3381
sS'haunt'
p3130
I1778
sS'doesn'
p3131
I365
sS'repres'
p3132
I1634
sS'uninterest'
p3133
I3083
sS'septemb'
p3134
I3927
sS'home'
p3135
I91
sS'hospit'
p3136
I215
sS'graham'
p3137
I2869
sS'exposit'
p3138
I4090
sS'phantom'
p3139
I1244
sS'tone'
p3140
I800
sS'loser'
p3141
I4182
sS'blade'
p3142
I5111
sS'titl'
p3143
I1984
sS'widmark'
p3144
I7287
sS'club'
p3145
I2261
sS'statement'
p3146
I3630
sS'supernatur'
p3147
I1428
sS'moron'
p3148
I2099
sS'aunt'
p3149
I3814
sS'manhattan'
p3150
I1651
sS'mock'
p3151
I1926
sS'nice'
p3152
I350
sS'draw'
p3153
I833
sS'clean'
p3154
I2540
sS'lend'
p3155
I1030
sS'amitabh'
p3156
I7639
sS'william'
p3157
I298
sS'meaning'
p3158
I1808
sS'fisher'
p3159
I258
sS'clue'
p3160
I2804
sS'desert'
p3161
I1774
sS'hackney'
p3162
I2897
sS'deserv'
p3163
I469
sS'ago'
p3164
I912
sS'lane'
p3165
I3127
sS'land'
p3166
I415
sS'fighter'
p3167
I3918
sS'lead'
p3168
I14
sS'trail'
p3169
I3765
sS'dvd'
p3170
I574
sS'outing'
p3171
I1203
sS'notion'
p3172
I2154
sS'depth'
p3173
I1539
sS'garbo'
p3174
I3800
sS'walker'
p3175
I4258
sS'fresh'
p3176
I2640
sS'beatti'
p3177
I5411
sS'buffalo'
p3178
I3611
sS'hello'
p3179
I3379
sS'pervert'
p3180
I2555
sS'partial'
p3181
I1781
sS'edg'
p3182
I855
sS'scratch'
p3183
I1925
sS'edi'
p3184
I5045
sS'alien'
p3185
I1437
sS'swedish'
p3186
I4136
sS'gang'
p3187
I1747
sS'aristocrat'
p3188
I1591
sS'psycho'
p3189
I454
sS'superfici'
p3190
I3815
sS'kate'
p3191
I1161
sS'literari'
p3192
I4023
sS'privat'
p3193
I2945
sS'simon'
p3194
I4431
sS'sensit'
p3195
I3864
sS'elsewher'
p3196
I3829
sS'young'
p3197
I165
sS'send'
p3198
I3126
sS'moor'
p3199
I3633
sS'becam'
p3200
I1442
sS'visitor'
p3201
I2628
sS'passion'
p3202
I1533
sS'airplan'
p3203
I4703
sS'fatal'
p3204
I1515
sS'sent'
p3205
I413
sS'sniper'
p3206
I3688
sS'queen'
p3207
I3332
sS'splatter'
p3208
I6422
sS'mainstream'
p3209
I2441
sS'nichola'
p3210
I4274
sS'deniro'
p3211
I4725
sS'wave'
p3212
I3383
sS'mous'
p3213
I4561
sS'volum'
p3214
I351
sS'disast'
p3215
I1142
sS'vacat'
p3216
I3591
sS'spoof'
p3217
I3711
sS'relev'
p3218
I921
sS'tri'
p3219
I36
sS'magic'
p3220
I1575
sS'miscast'
p3221
I2879
sS'knight'
p3222
I1398
sS'button'
p3223
I3586
sS'shock'
p3224
I1560
sS'michael'
p3225
I2802
sS'eve'
p3226
I5373
sS'ryan'
p3227
I2819
sS'subtitl'
p3228
I2175
sS'race'
p3229
I1571
sS'trite'
p3230
I1010
sS'reson'
p3231
I4538
sS'marri'
p3232
I1552
sS'barbara'
p3233
I4133
sS'joey'
p3234
I2651
sS'pleas'
p3235
I650
sS'vehicl'
p3236
I310
sS'impli'
p3237
I2198
sS'smaller'
p3238
I1123
sS'fortun'
p3239
I1149
sS'carter'
p3240
I2569
sS'natur'
p3241
I416
sS'scientist'
p3242
I2832
sS'soul'
p3243
I2808
sS'jump'
p3244
I770
sS'crook'
p3245
I4391
sS'helicopt'
p3246
I2330
sS'video'
p3247
I426
sS'franchis'
p3248
I2211
sS'acid'
p3249
I4348
sS'odd'
p3250
I744
sS'click'
p3251
I4158
sS'folk'
p3252
I1549
sS'victor'
p3253
I1338
sS'south'
p3254
I4309
sS'poke'
p3255
I3449
sS'compar'
p3256
I163
sS'chicago'
p3257
I3674
sS'wore'
p3258
I2924
sS'fianc'
p3259
I1489
sS'rukh'
p3260
I3021
sS'slight'
p3261
I1392
sS'bergman'
p3262
I3947
sS'access'
p3263
I1980
sS'rotten'
p3264
I1879
sS'indian'
p3265
I2436
sS'bird'
p3266
I3177
sS'whatev'
p3267
I1681
sS'led'
p3268
I896
sS'chose'
p3269
I3087
sS'leg'
p3270
I120
sS'meg'
p3271
I2818
sS'sexi'
p3272
I2362
sS'punch'
p3273
I736
sS'leo'
p3274
I1279
sS'sceneri'
p3275
I2160
sS'les'
p3276
I4625
sS'let'
p3277
I631
sS'sink'
p3278
I1154
sS'storytel'
p3279
I798
sS'melodramat'
p3280
I2258
sS'sing'
p3281
I2641
sS'becom'
p3282
I391
sS'fifteen'
p3283
I1678
sS'sinc'
p3284
I804
sS'great'
p3285
I721
sS'stark'
p3286
I2438
sS'talent'
p3287
I1134
sS'convers'
p3288
I1738
sS'survivor'
p3289
I145
sS'laughter'
p3290
I2927
sS'conceiv'
p3291
I3968
sS'larger'
p3292
I2226
sS'technolog'
p3293
I82
sS'poignant'
p3294
I1997
sS'karloff'
p3295
I977
sS'resurrect'
p3296
I4507
sS'painter'
p3297
I4781
sS'sword'
p3298
I3373
sS'defeat'
p3299
I1546
sS'popcorn'
p3300
I1052
sS'opinion'
p3301
I661
sS'typic'
p3302
I270
sS'gene'
p3303
I2861
sS'honor'
p3304
I1136
sS'chanc'
p3305
I651
sS'tenant'
p3306
I5549
sS'wig'
p3307
I4378
sS'employe'
p3308
I1626
sS'clark'
p3309
I3140
sS'danger'
p3310
I582
sS'pitch'
p3311
I2729
sS'win'
p3312
I886
sS'emot'
p3313
I515
sS'apt'
p3314
I2495
sS'wit'
p3315
I1095
sS'blah'
p3316
I4085
sS'zizek'
p3317
I7217
sS'duck'
p3318
I4454
sS'gimmick'
p3319
I4932
sS'sugar'
p3320
I4323
sS'cloud'
p3321
I2367
sS'ape'
p3322
I3353
sS'use'
p3323
I144
sS'crap'
p3324
I260
sS'kenneth'
p3325
I3399
sS'usa'
p3326
I2881
sS'sympath'
p3327
I3854
sS'doubl'
p3328
I2184
sS'sympathet'
p3329
I2218
sS'next'
p3330
I84
sS'websit'
p3331
I3784
sS'doubt'
p3332
I507
sS'conneri'
p3333
I5097
sS'lesli'
p3334
I274
sS'jonathan'
p3335
I1340
sS'lewi'
p3336
I4749
sS'sort'
p3337
I607
sS'clever'
p3338
I2726
sS'babe'
p3339
I4398
sS'disgust'
p3340
I1922
sS'babi'
p3341
I1415
sS'trait'
p3342
I540
sS'musician'
p3343
I2423
sS'impress'
p3344
I257
sS'columbo'
p3345
I3798
sS'sore'
p3346
I3447
sS'train'
p3347
I2178
sS'rubbish'
p3348
I3646
sS'actual'
p3349
I272
sS'gambl'
p3350
I3488
sS'iii'
p3351
I4275
sS'wretch'
p3352
I4959
sS'women'
p3353
I458
sS'annoy'
p3354
I963
sS'tad'
p3355
I3397
sS'account'
p3356
I1730
sS'alik'
p3357
I3208
sS'spi'
p3358
I3742
sS'tunnel'
p3359
I4501
sS'gabriel'
p3360
I386
sS'ride'
p3361
I1231
sS'alic'
p3362
I5202
sS'stroke'
p3363
I1440
sS'pour'
p3364
I3337
sS'unreal'
p3365
I3541
sS'obvious'
p3366
I419
sS'thin'
p3367
I3030
sS'rooney'
p3368
I4032
sS'meet'
p3369
I125
sS'drunk'
p3370
I3783
sS'fetch'
p3371
I51
sS'aliv'
p3372
I1056
sS'proof'
p3373
I3842
sS'control'
p3374
I1496
sS'tarantino'
p3375
I2372
sS'tap'
p3376
I2759
sS'contempl'
p3377
I1675
sS'jodi'
p3378
I6073
sS'process'
p3379
I2220
sS'lock'
p3380
I1724
sS'millionair'
p3381
I212
sS'tax'
p3382
I3941
sS'high'
p3383
I2
sS'villain'
p3384
I1329
sS'tag'
p3385
I2921
sS'downhil'
p3386
I5425
sS'bend'
p3387
I5106
sS'slip'
p3388
I1308
sS'onlin'
p3389
I594
sS'serial'
p3390
I579
sS'crimin'
p3391
I2101
sS'rape'
p3392
I2603
sS'everywher'
p3393
I471
sS'cring'
p3394
I2789
sS'surfac'
p3395
I3470
sS'orson'
p3396
I3983
sS'sit'
p3397
I1152
sS'comedi'
p3398
I4
sS'blob'
p3399
I14754
sS'georg'
p3400
I56
sS'brian'
p3401
I3186
sS'inmat'
p3402
I5159
sS'mari'
p3403
I2544
sS'sid'
p3404
I6328
sS'instead'
p3405
I176
sS'mccoy'
p3406
I5656
sS'scroog'
p3407
I4935
sS'panic'
p3408
I1718
sS'sin'
p3409
I3266
sS'inher'
p3410
I5565
sS'stock'
p3411
I2562
sS'fare'
p3412
I342
sS'tension'
p3413
I836
sS'express'
p3414
I1963
sS'attend'
p3415
I470
sS'sir'
p3416
I3992
sS'farm'
p3417
I3897
sS'watch'
p3418
I328
sS'await'
p3419
I3210
sS'fart'
p3420
I5022
sS'attent'
p3421
I780
sS'ethnic'
p3422
I3207
sS'philosophi'
p3423
I2313
sS'choppi'
p3424
I4826
sS'physic'
p3425
I417
sS'tomato'
p3426
I5279
sS'villag'
p3427
I3012
sS'assassin'
p3428
I2085
sS'essenti'
p3429
I1529
sS'nanci'
p3430
I5269
sS'nativ'
p3431
I2034
sS'light'
p3432
I372
sS'lame'
p3433
I1731
sS'liner'
p3434
I1564
sS'element'
p3435
I1282
sS'issu'
p3436
I58
sS'scoop'
p3437
I3419
sS'chief'
p3438
I2248
sS'spain'
p3439
I4034
sS'wwii'
p3440
I2943
sS'allow'
p3441
I928
sS'furious'
p3442
I3939
sS'ellen'
p3443
I4132
sS'loud'
p3444
I2445
sS'breast'
p3445
I3621
sS'six'
p3446
I1620
sS'movi'
p3447
I222
sS'insight'
p3448
I22
sS'imperson'
p3449
I444
sS'elit'
p3450
I1380
sS'whilst'
p3451
I2003
sS'grayson'
p3452
I7266
sS'warren'
p3453
I132
sS'perfect'
p3454
I448
sS'superior'
p3455
I1719
sS'blake'
p3456
I5188
sS'outer'
p3457
I2531
sS'bridget'
p3458
I7185
sS'till'
p3459
I2449
sS'chosen'
p3460
I944
sS'brook'
p3461
I102
sS'nostalgia'
p3462
I2447
sS'labor'
p3463
I2273
sS'vital'
p3464
I1998
sS'restrain'
p3465
I4257
sS'decad'
p3466
I562
sS'therefor'
p3467
I2634
sS'hoffman'
p3468
I4634
sS'forest'
p3469
I5148
sS'dad'
p3470
I3572
sS'freeman'
p3471
I3574
sS'crash'
p3472
I2699
sS'greater'
p3473
I2954
sS'legendari'
p3474
I976
sS'handl'
p3475
I957
sS'dan'
p3476
I1053
sS'overal'
p3477
I287
sS'earn'
p3478
I3115
sS'tribut'
p3479
I1586
sS'relentless'
p3480
I1194
sS'newman'
p3481
I2820
sS'mention'
p3482
I1196
sS'snake'
p3483
I2766
sS'kiss'
p3484
I3547
sS'front'
p3485
I1573
sS'garner'
p3486
I2815
sS'cage'
p3487
I3315
sS'day'
p3488
I114
sS'billi'
p3489
I1334
sS'somewher'
p3490
I2779
sS'thrill'
p3491
I377
sS'anyth'
p3492
I193
sS'edit'
p3493
I429
sS'poetri'
p3494
I4011
sS'slide'
p3495
I3218
sS'denzel'
p3496
I1157
sS'mode'
p3497
I1907
sS'truth'
p3498
I520
sS'beneath'
p3499
I2780
sS'warner'
p3500
I1311
sS'societi'
p3501
I255
sS'map'
p3502
I5008
sS'bump'
p3503
I993
sS'globe'
p3504
I2925
sS'uwe'
p3505
I14442
sS'spielberg'
p3506
I1185
sS'consum'
p3507
I1297
sS'banal'
p3508
I4728
sS'secretari'
p3509
I4349
sS'sexual'
p3510
I356
sS'wander'
p3511
I1535
sS'special'
p3512
I1169
sS'matt'
p3513
I2657
sS'argument'
p3514
I2837
sS'matrix'
p3515
I1701
sS'sentiment'
p3516
I2021
sS'bag'
p3517
I2999
sS'influenc'
p3518
I2116
sS'confess'
p3519
I1316
sS'repress'
p3520
I3482
sS'categori'
p3521
I1941
sS'prom'
p3522
I5765
sS'mate'
p3523
I2845
sS'suitabl'
p3524
I1979
sS'disappear'
p3525
I1432
sS'max'
p3526
I3748
sS'calib'
p3527
I3485
sS'wick'
p3528
I3980
sS'stun'
p3529
I1167
sS'dive'
p3530
I1686
sS'red'
p3531
I2337
sS'obsess'
p3532
I840
sS'franc'
p3533
I1366
sS'shut'
p3534
I1615
sS'jessica'
p3535
I3938
sS'insid'
p3536
I1079
sS'frank'
p3537
I1075
sS'manipul'
p3538
I2124
sS'colonel'
p3539
I2831
sS'jeff'
p3540
I2900
sS'invad'
p3541
I216
sS'wizard'
p3542
I3949
sS'trashi'
p3543
I5401
sS'york'
p3544
I421
sS'usual'
p3545
I214
sS'releas'
p3546
I575
sS'embarrass'
p3547
I1739
sS'philip'
p3548
I3707
sS'molli'
p3549
I130
sS'bleed'
p3550
I221
sS'greedi'
p3551
I989
sS'etern'
p3552
I2762
sS'river'
p3553
I2114
sS'squad'
p3554
I4785
sS'propaganda'
p3555
I2405
sS'enchant'
p3556
I3195
sS'florida'
p3557
I5303
sS'keep'
p3558
I370
sS'counterpart'
p3559
I5531
sS'scari'
p3560
I614
sS'length'
p3561
I1902
sS'enforc'
p3562
I3865
sS'curti'
p3563
I4445
sS'outsid'
p3564
I1431
sS'presid'
p3565
I2519
sS'cain'
p3566
I3713
sS'parallel'
p3567
I2461
sS'austin'
p3568
I3712
sS'scare'
p3569
I1764
sS'waitress'
p3570
I819
sS'mankind'
p3571
I2401
sS'finest'
p3572
I1450
sS'blown'
p3573
I1708
sS'franki'
p3574
I5688
sS'qualiti'
p3575
I655
sS'scene'
p3576
I187
sS'echo'
p3577
I2289
sS'phil'
p3578
I4134
sS'puppet'
p3579
I2620
sS'bitch'
p3580
I1173
sS'owner'
p3581
I1909
sS'cousin'
p3582
I3892
sS'suffic'
p3583
I4088
sS'prank'
p3584
I4441
sS'sharon'
p3585
I5191
sS'ancient'
p3586
I1974
sS'monkey'
p3587
I2026
sS'los'
p3588
I3774
sS'unknown'
p3589
I1427
sS'vulgar'
p3590
I4168
sS'accent'
p3591
I2841
sS'system'
p3592
I2431
sS'messag'
p3593
I1674
sS'attach'
p3594
I1910
sS'attack'
p3595
I1791
sS'sergeant'
p3596
I3560
sS'ton'
p3597
I1523
sS'termin'
p3598
I1374
sS'final'
p3599
I466
sS'boil'
p3600
I1400
sS'shell'
p3601
I2324
sS'stomach'
p3602
I2602
sS'gear'
p3603
I4213
sS'jesus'
p3604
I2875
sS'punish'
p3605
I3184
sS'juli'
p3606
I1777
sS'shallow'
p3607
I1809
sS'accompani'
p3608
I1975
sS'josh'
p3609
I4936
sS'academi'
p3610
I611
sS'anybodi'
p3611
I1467
sS'haven'
p3612
I1300
sS'neck'
p3613
I3121
sS'steel'
p3614
I1406
sS'nun'
p3615
I6836
sS'photograph'
p3616
I1657
sS'ben'
p3617
I940
sS'aka'
p3618
I2806
sS'repuls'
p3619
I6245
sS'wet'
p3620
I3276
sS'bother'
p3621
I1292
sS'unorigin'
p3622
I4929
sS'beg'
p3623
I2008
sS'structur'
p3624
I1145
sS'charact'
p3625
I126
sS'muppet'
p3626
I7916
sS'sens'
p3627
I1554
sS'lover'
p3628
I511
sS'bare'
p3629
I1420
sS'psycholog'
p3630
I382
sS'kubrick'
p3631
I2391
sS'bet'
p3632
I87
sS'tommi'
p3633
I3117
sS'exhibit'
p3634
I1906
sS'function'
p3635
I3593
sS'shakespear'
p3636
I2623
sS'clip'
p3637
I2509
sS'terribl'
p3638
I1394
sS'viewer'
p3639
I1208
sS'explicit'
p3640
I1860
sS'robot'
p3641
I4325
sS'tonight'
p3642
I3409
sS'corrupt'
p3643
I2000
sS'imdb'
p3644
I1251
sS'immigr'
p3645
I2271
sS'coher'
p3646
I2400
sS'close'
p3647
I319
sS'need'
p3648
I699
sS'sky'
p3649
I3172
sS'border'
p3650
I2275
sS'screw'
p3651
I1751
sS'depict'
p3652
I701
sS'min'
p3653
I808
sS'mclaglen'
p3654
I5686
sS'rout'
p3655
I4812
sS'lili'
p3656
I4545
sS'mid'
p3657
I1845
sS'accuraci'
p3658
I3197
sS'mix'
p3659
I305
sS'unawar'
p3660
I2092
sS'tactic'
p3661
I2582
sS'holm'
p3662
I5211
sS'combin'
p3663
I1335
sS'korean'
p3664
I3295
sS'soap'
p3665
I2215
sS'singl'
p3666
I1164
sS'analysi'
p3667
I5000
sS'pete'
p3668
I447
sS'junior'
p3669
I4474
sS'unless'
p3670
I3429
sS'agenda'
p3671
I4415
sS'clash'
p3672
I2024
sS'african'
p3673
I3280
sS'salli'
p3674
I3065
sS'whi'
p3675
I483
sS'discov'
p3676
I519
sS'mortal'
p3677
I3279
sS'altman'
p3678
I3222
sS'handsom'
p3679
I3017
sS'eight'
p3680
I2764
sS'tall'
p3681
I2934
sS'awe'
p3682
I1132
sS'segment'
p3683
I3657
sS'class'
p3684
I1295
sS'landscap'
p3685
I4075
sS'urg'
p3686
I1605
sS'nazi'
p3687
I3741
sS'gather'
p3688
I1504
sS'upset'
p3689
I1900
sS'face'
p3690
I191
sS'inde'
p3691
I1722
sS'deni'
p3692
I2265
sS'malon'
p3693
I2725
sS'absurd'
p3694
I3319
sS'determin'
p3695
I754
sS'occasion'
p3696
I682
sS'hardcor'
p3697
I3324
sS'indi'
p3698
I2773
sS'wow'
p3699
I1949
sS'fact'
p3700
I536
sS'affair'
p3701
I2707
sS'parker'
p3702
I2894
sS'brenda'
p3703
I4180
sS'dorothi'
p3704
I3759
sS'text'
p3705
I4329
sS'unseen'
p3706
I2848
sS'anyway'
p3707
I795
sS'hamlet'
p3708
I4462
sS'bring'
p3709
I1220
sS'stilt'
p3710
I3148
sS'lloyd'
p3711
I4357
sS'johnni'
p3712
I2866
sS'bedroom'
p3713
I2988
sS'utter'
p3714
I1749
sS'fear'
p3715
I1720
sS'asylum'
p3716
I3833
sS'texa'
p3717
I2880
sS'eas'
p3718
I3434
sS'staff'
p3719
I2249
sS'footbal'
p3720
I3895
sS'ear'
p3721
I3070
sS'locat'
p3722
I312
sS'yeti'
p3723
I3303
sS'tire'
p3724
I3627
sS'hadn'
p3725
I2843
sS'jaw'
p3726
I3318
sS'winner'
p3727
I1579
sS'jar'
p3728
I3139
sS'forev'
p3729
I1871
sS'hyster'
p3730
I2219
sS'jan'
p3731
I3297
sS'gestur'
p3732
I4956
sS'suppos'
p3733
I881
sS'ethan'
p3734
I4055
sS'intrigu'
p3735
I497
sS'communist'
p3736
I1993
sS'spice'
p3737
I3321
sS'local'
p3738
I1815
sS'hope'
p3739
I553
sS'meant'
p3740
I1869
sS'move'
p3741
I122
sS'contribut'
p3742
I1913
sS'ludicr'
p3743
I3502
sS'beat'
p3744
I2310
sS'familiar'
p3745
I815
sS'sassi'
p3746
I3768
sS'disagre'
p3747
I3029
sS'hire'
p3748
I2368
sS'passeng'
p3749
I1601
sS'awak'
p3750
I5553
sS'redeem'
p3751
I4153
sS'increas'
p3752
I917
sS'photographi'
p3753
I668
sS'lucki'
p3754
I2083
sS'endless'
p3755
I3013
sS'smash'
p3756
I2546
sS'reluct'
p3757
I1886
sS'organ'
p3758
I456
sS'graduat'
p3759
I3269
sS'countrysid'
p3760
I1959
sS'rage'
p3761
I2298
sS'femm'
p3762
I4175
sS'reid'
p3763
I7254
sS'devast'
p3764
I2063
sS'stuff'
p3765
I1379
sS'integr'
p3766
I2269
sS'contain'
p3767
I895
sS'shi'
p3768
I3370
sS'grab'
p3769
I3006
sS'craven'
p3770
I5746
sS'view'
p3771
I235
sS'legaci'
p3772
I1973
sS'warrior'
p3773
I2671
sS'credibl'
p3774
I2234
sS'horrend'
p3775
I3301
sS'frame'
p3776
I827
sS'showdown'
p3777
I876
sS'abort'
p3778
I5023
sS'apolog'
p3779
I1642
sS'bourn'
p3780
I4444
sS'distract'
p3781
I1745
sS'teas'
p3782
I4331
sS'equip'
p3783
I3291
sS'stack'
p3784
I4304
sS'bibl'
p3785
I2353
sS'closer'
p3786
I18
sS'statu'
p3787
I4002
sS'shaki'
p3788
I3626
sS'superhero'
p3789
I4767
sS'closet'
p3790
I3505
sS'pattern'
p3791
I1255
sS'ralph'
p3792
I4560
sS'thumb'
p3793
I2250
sS'superb'
p3794
I197
sS'genius'
p3795
I2352
sS'state'
p3796
I57
sS'unravel'
p3797
I3486
sS'destini'
p3798
I1570
sS'tens'
p3799
I663
sS'progress'
p3800
I2633
sS'neither'
p3801
I752
sS'bunch'
p3802
I985
sS'induc'
p3803
I2386
sS'midnight'
p3804
I3334
sS'bought'
p3805
I1765
sS'centr'
p3806
I4637
sS'ken'
p3807
I4131
sS'bed'
p3808
I1646
sS'joy'
p3809
I2089
sS'gotta'
p3810
I2893
sS'dislik'
p3811
I1241
sS'shanghai'
p3812
I4351
sS'job'
p3813
I288
sS'entir'
p3814
I718
sS'joe'
p3815
I446
sS'spoil'
p3816
I1109
sS'werewolf'
p3817
I4998
sS'precious'
p3818
I1934
sS'pirat'
p3819
I4599
sS'illog'
p3820
I5116
sS'addit'
p3821
I1645
sS'revers'
p3822
I1258
sS'instant'
p3823
I2067
sS'buster'
p3824
I3307
sS'extens'
p3825
I3686
sS'career'
p3826
I978
sS'joke'
p3827
I244
sS'equal'
p3828
I1368
sS'drug'
p3829
I924
sS'pulp'
p3830
I2576
sS'marti'
p3831
I4802
sS'april'
p3832
I1323
sS'admit'
p3833
I691
sS'empathi'
p3834
I2161
sS'admir'
p3835
I1812
sS'swim'
p3836
I2522
sS'swallow'
p3837
I3061
sS'darker'
p3838
I2533
sS'afraid'
p3839
I1551
sS'glorious'
p3840
I2217
sS'comment'
p3841
I410
sS'dement'
p3842
I1046
sS'cathol'
p3843
I5270
sS'extent'
p3844
I1888
sS'toilet'
p3845
I2850
sS'wall'
p3846
I96
sS'arriv'
p3847
I1086
sS'walk'
p3848
I2189
sS'commend'
p3849
I846
sS'distinguish'
p3850
I3998
sS'greg'
p3851
I5841
sS'laugh'
p3852
I2396
sS'toler'
p3853
I3433
sS'respect'
p3854
I1933
sS'mafia'
p3855
I2599
sS'basing'
p3856
I1054
sS'quit'
p3857
I225
sS'slowli'
p3858
I1788
sS'creat'
p3859
I929
sS'curios'
p3860
I3101
sS'catherin'
p3861
I1780
sS'decent'
p3862
I1304
sS'trademark'
p3863
I2637
sS'compos'
p3864
I1449
sS'cent'
p3865
I4395
sS'shame'
p3866
I2071
sS'blatant'
p3867
I3403
sS'besid'
p3868
I2883
sS'treat'
p3869
I1693
sS'electr'
p3870
I2855
sS'immedi'
p3871
I38
sS'domino'
p3872
I3200
sS'cheek'
p3873
I3700
sS'mike'
p3874
I2911
sS'treasur'
p3875
I98
sS'spock'
p3876
I5803
sS'presenc'
p3877
I659
sS'coincid'
p3878
I2594
sS'ray'
p3879
I4148
sS'meaningless'
p3880
I3357
sS'deliber'
p3881
I873
sS'atlanti'
p3882
I2210
sS'togeth'
p3883
I829
sS'bull'
p3884
I2264
sS'ador'
p3885
I3076
sS'gross'
p3886
I1015
sS'fellow'
p3887
I1714
sS'plausibl'
p3888
I2328
sS'present'
p3889
I1328
sS'crappi'
p3890
I2888
sS'homer'
p3891
I3624
sS'ingredi'
p3892
I1753
sS'multi'
p3893
I3206
sS'novel'
p3894
I1692
sS'plain'
p3895
I1333
sS'harder'
p3896
I1878
sS'implic'
p3897
I4569
sS'will'
p3898
I177
sS'defin'
p3899
I2521
sS'cox'
p3900
I1321
sS'wild'
p3901
I2288
sS'ultra'
p3902
I1542
sS'howev'
p3903
I362
sS'watson'
p3904
I3861
sS'layer'
p3905
I4197
sS'purchas'
p3906
I1898
sS'engag'
p3907
I364
sS'ensembl'
p3908
I3091
sS'almost'
p3909
I484
sS'fonda'
p3910
I5104
sS'cultur'
p3911
I1867
sS'thus'
p3912
I2013
sS'site'
p3913
I217
sS'pitt'
p3914
I5522
sS'lust'
p3915
I3316
sS'gothic'
p3916
I983
sS'thug'
p3917
I3420
sS'partner'
p3918
I805
sS'inspector'
p3919
I42
sS'primit'
p3920
I3509
sS'scienc'
p3921
I1439
sS'portray'
p3922
I598
sS'terrorist'
p3923
I2319
sS'welcom'
p3924
I44
sS'japanes'
p3925
I2322
sS'generic'
p3926
I882
sS'parti'
p3927
I2987
sS'began'
p3928
I965
sS'cross'
p3929
I1559
sS'eric'
p3930
I3905
sS'member'
p3931
I254
sS'foxx'
p3932
I943
sS'wheel'
p3933
I3899
sS'pauli'
p3934
I5262
sS'underground'
p3935
I2573
sS'failur'
p3936
I3521
sS'cream'
p3937
I2723
sS'eva'
p3938
I2889
sS'flair'
p3939
I2782
sS'difficult'
p3940
I1958
sS'competit'
p3941
I3239
sS'prais'
p3942
I2516
sS'ball'
p3943
I2959
sS'slave'
p3944
I2012
sS'raymond'
p3945
I3647
sS'selfish'
p3946
I2701
sS'flesh'
p3947
I279
sS'absorb'
p3948
I1976
sS'drink'
p3949
I2254
sS'upon'
p3950
I1104
sS'effect'
p3951
I1120
sS'coffe'
p3952
I4092
sS'beast'
p3953
I3310
sS'exot'
p3954
I1856
sS'student'
p3955
I23
sS'dust'
p3956
I3028
sS'whale'
p3957
I1889
sS'judgment'
p3958
I4341
sS'expand'
p3959
I2667
sS'audit'
p3960
I3896
sS'retard'
p3961
I5072
sS'priest'
p3962
I3384
sS'ashley'
p3963
I4875
sS'center'
p3964
I2006
sS'nevertheless'
p3965
I1076
sS'colour'
p3966
I2318
sS'contest'
p3967
I1711
sS'well'
p3968
I294
sS'uninspir'
p3969
I3550
sS'thought'
p3970
I605
sS'vet'
p3971
I4713
sS'exampl'
p3972
I922
sS'command'
p3973
I2341
sS'english'
p3974
I1643
sS'rifl'
p3975
I4374
sS'audio'
p3976
I3909
sS'soviet'
p3977
I2939
sS'sibl'
p3978
I3267
sS'latest'
p3979
I486
sS'nerv'
p3980
I2743
sS'olli'
p3981
I12107
sS'distanc'
p3982
I4100
sS'cameo'
p3983
I2457
sS'paus'
p3984
I4052
sS'rocket'
p3985
I1618
sS'less'
p3986
I271
sS'wagner'
p3987
I1135
sS'obtain'
p3988
I3634
sS'mistaken'
p3989
I4188
sS'gun'
p3990
I2312
sS'distant'
p3991
I2138
sS'surpass'
p3992
I3173
sS'heavili'
p3993
I1180
sS'episod'
p3994
I34
sS'paul'
p3995
I2042
sS'keen'
p3996
I1956
sS'griffith'
p3997
I4770
sS'brad'
p3998
I5383
sS'web'
p3999
I2609
sS'generous'
p4000
I4314
sS'rapid'
p4001
I2142
sS'wed'
p4002
I2650
sS'flee'
p4003
I4003
sS'bell'
p4004
I2891
sS'smith'
p4005
I1343
sS'lake'
p4006
I2890
sS'heston'
p4007
I6418
sS'discuss'
p4008
I1516
sS'wes'
p4009
I5945
sS'arrest'
p4010
I1882
sS'add'
p4011
I720
sS'crack'
p4012
I902
sS'niro'
p4013
I4695
sS'introduct'
p4014
I2769
sS'warrant'
p4015
I2072
sS'sammi'
p4016
I4821
sS'match'
p4017
I1188
sS'boom'
p4018
I1887
sS'critiqu'
p4019
I3508
sS'sick'
p4020
I313
sS'fate'
p4021
I1331
sS'piec'
p4022
I548
sS'arguabl'
p4023
I3166
sS'ridden'
p4024
I4580
sS'realiz'
p4025
I1520
sS'five'
p4026
I1317
sS'know'
p4027
I172
sS'facial'
p4028
I2027
sS'press'
p4029
I2678
sS'realis'
p4030
I1992
sS'betti'
p4031
I3732
sS'loss'
p4032
I1729
sS'sissi'
p4033
I111
sS'resid'
p4034
I1048
sS'like'
p4035
I99
sS'success'
p4036
I346
sS'incred'
p4037
I612
sS'corpor'
p4038
I1805
sS'profound'
p4039
I2005
sS'karen'
p4040
I4473
sS'clown'
p4041
I3394
sS'opera'
p4042
I1932
sS'dancer'
p4043
I133
sS'necessari'
p4044
I153
sS'journalist'
p4045
I3863
sS'lose'
p4046
I137
sS'chick'
p4047
I2910
sS'funniest'
p4048
I2662
sS'soft'
p4049
I2433
sS'crisi'
p4050
I867
sS'candi'
p4051
I3088
sS'italian'
p4052
I242
sS'shed'
p4053
I1833
sS'didn'
p4054
I521
sS'glare'
p4055
I3149
sS'captur'
p4056
I629
sS'church'
p4057
I2665
sS'thief'
p4058
I948
sS'hair'
p4059
I2338
sS'sophist'
p4060
I2131
sS'francisco'
p4061
I4043
sS'convey'
p4062
I1417
sS'proper'
p4063
I1512
sS'guarante'
p4064
I746
sS'peter'
p4065
I700
sS'gonna'
p4066
I3932
sS'transport'
p4067
I2676
sS'trust'
p4068
I633
sS'nuclear'
p4069
I4740
sS'disbelief'
p4070
I1242
sS'broad'
p4071
I1073
sS'avoid'
p4072
I646
sS'lean'
p4073
I811
sS'leap'
p4074
I1497
sS'leav'
p4075
I541
sS'settl'
p4076
I1797
sS'baddi'
p4077
I3153
sS'launch'
p4078
I4226
sS'hippi'
p4079
I2656
sS'nake'
p4080
I2369
sS'leader'
p4081
I2578
sS'trap'
p4082
I2193
sS'encourag'
p4083
I1509
sS'investig'
p4084
I517
sS'proud'
p4085
I2062
sS'worthi'
p4086
I1111
sS'stellar'
p4087
I1944
sS'lugosi'
p4088
I2507
sS'host'
p4089
I390
sS'reveng'
p4090
I2718
sS'although'
p4091
I962
sS'instinct'
p4092
I3501
sS'vengeanc'
p4093
I2621
sS'stage'
p4094
I437
sS'unwatch'
p4095
I4601
sS'sister'
p4096
I1412
sS'quarter'
p4097
I3023
sS'rare'
p4098
I1307
sS'justin'
p4099
I3959
sS'linger'
p4100
I1859
sS'justic'
p4101
I2493
sS'freedom'
p4102
I2953
sS'gundam'
p4103
I5437
sS'documentari'
p4104
I1062
sS'sidekick'
p4105
I2363
sS'swear'
p4106
I3232
sS'bridg'
p4107
I2964
sS'blockbust'
p4108
I2166
sS'emperor'
p4109
I2084
sS'disabl'
p4110
I4417
sS'desper'
p4111
I542
sS'absolut'
p4112
I848
sS'glenn'
p4113
I6042
sS'owe'
p4114
I2227
sS'tight'
p4115
I3014
sS'tortur'
p4116
I2721
sS'washington'
p4117
I1158
sS'automat'
p4118
I4674
sS'stan'
p4119
I7234
sS'guard'
p4120
I953
sS'lundgren'
p4121
I4522
sS'perpetu'
p4122
I2941
sS'awhil'
p4123
I2791
sS'austen'
p4124
I4229
sS'pointless'
p4125
I4291
sS'mere'
p4126
I1165
sS'van'
p4127
I2994
sS'pictur'
p4128
I95
sS'transfer'
p4129
I1947
sS'museum'
p4130
I4479
sS'cinderella'
p4131
I4140
sS'charisma'
p4132
I1532
sS'intellig'
p4133
I1798
sS'petti'
p4134
I28
sS'inner'
p4135
I550
sS'immers'
p4136
I4270
sS'biggest'
p4137
I1324
sS'gut'
p4138
I2781
sS'jason'
p4139
I2908
sS'deliveri'
p4140
I761
sS'buy'
p4141
I1170
sS'north'
p4142
I1363
sS'unexpect'
p4143
I1843
sS'innoc'
p4144
I1545
sS'bus'
p4145
I3038
sS'brand'
p4146
I3682
sS'sequel'
p4147
I2713
sS'yeah'
p4148
I2339
sS'bodi'
p4149
I2185
sS'gain'
p4150
I1628
sS'grate'
p4151
I3147
sS'culmin'
p4152
I3005
sS'highest'
p4153
I2995
sS'bug'
p4154
I2052
sS'bud'
p4155
I3237
sS'count'
p4156
I893
sS'made'
p4157
I275
sS'wise'
p4158
I2046
sS'verhoeven'
p4159
I1921
sS'whether'
p4160
I1419
sS'wish'
p4161
I1125
sS'antwon'
p4162
I7656
sS'smooth'
p4163
I2253
sS'flip'
p4164
I1874
sS'troubl'
p4165
I397
sS'record'
p4166
I1556
sS'cruel'
p4167
I3044
sS'belov'
p4168
I2561
sS'limit'
p4169
I1201
sS'hesit'
p4170
I3516
sS'glori'
p4171
I4116
sS'cake'
p4172
I3652
sS'otherwis'
p4173
I438
sS'problem'
p4174
I777
sS'beach'
p4175
I3989
sS'display'
p4176
I623
sS'firm'
p4177
I2835
sS'irish'
p4178
I1505
sS'pin'
p4179
I3366
sS'descript'
p4180
I1840
sS'dure'
p4181
I1358
sS'circus'
p4182
I2736
sS'beatl'
p4183
I3100
sS'pig'
p4184
I3425
sS'twist'
p4185
I1114
sS'jenni'
p4186
I2242
sS'dawson'
p4187
I1483
sS'penni'
p4188
I5076
sS'pit'
p4189
I1965
sS'happen'
p4190
I354
sS'probabl'
p4191
I281
sS'spell'
p4192
I3405
sS'quot'
p4193
I2094
sS'nonetheless'
p4194
I1652
sS'boot'
p4195
I802
sS'detail'
p4196
I801
sS'virtual'
p4197
I2272
sS'surreal'
p4198
I1851
sS'disjoint'
p4199
I2397
sS'book'
p4200
I639
sS'futur'
p4201
I116
sS'rememb'
p4202
I1248
sS'varieti'
p4203
I4216
sS'martial'
p4204
I3362
sS'squar'
p4205
I4352
sS'behold'
p4206
I3738
sS'wing'
p4207
I2329
sS'cyborg'
p4208
I2360
sS'nelson'
p4209
I5204
sS'canada'
p4210
I3035
sS'junk'
p4211
I4719
sS'repeat'
p4212
I35
sS'star'
p4213
I104
sS'castl'
p4214
I990
sS'june'
p4215
I2878
sS'kapoor'
p4216
I3034
sS'stay'
p4217
I909
sS'margaret'
p4218
I3532
sS'accomplish'
p4219
I3537
sS'stab'
p4220
I4001
sS'kinda'
p4221
I1227
sS'richardson'
p4222
I7056
sS'sandler'
p4223
I6747
sS'wannab'
p4224
I3615
sS'humbl'
p4225
I3563
sS'vein'
p4226
I3141
sS'cliff'
p4227
I2698
sS'ghost'
p4228
I870
sS'experienc'
p4229
I1631
sS'massacr'
p4230
I4482
sS'scientif'
p4231
I3344
sS'baker'
p4232
I475
sS'martin'
p4233
I2096
sS'jewel'
p4234
I3241
sS'fest'
p4235
I2898
sS'rule'
p4236
I1662
sS'portion'
p4237
I1399
sS'emerg'
p4238
I2768
sS'fifti'
p4239
I3973
sS'simpson'
p4240
I3410
sS'rural'
p4241
I2811
sS'yell'
p4242
I2357
sS'defend'
p4243
I3011
sS'sincer'
p4244
I1761
s.