(dp0
S'superman'
p1
I01
sS'widow'
p2
I01
sS'hatr'
p3
I01
sS'bear'
p4
I01
sS'yellow'
p5
I01
sS'four'
p6
I01
sS'protest'
p7
I01
sS'sleep'
p8
I01
sS'asian'
p9
I01
sS'mansion'
p10
I01
sS'climb'
p11
I01
sS'captain'
p12
I01
sS'hate'
p13
I01
sS'forget'
p14
I01
sS'whose'
p15
I01
sS'accus'
p16
I01
sS'accur'
p17
I01
sS'sorri'
p18
I01
sS'edward'
p19
I01
sS'buddi'
p20
I01
sS'woodi'
p21
I01
sS'lord'
p22
I01
sS'pride'
p23
I01
sS'boll'
p24
I01
sS'worth'
p25
I01
sS'file'
p26
I01
sS'lack'
p27
I01
sS'everi'
p28
I01
sS'risk'
p29
I01
sS'appal'
p30
I01
sS'rise'
p31
I01
sS'lurk'
p32
I01
sS'voic'
p33
I01
sS'distort'
p34
I01
sS'stolen'
p35
I01
sS'jack'
p36
I01
sS'delv'
p37
I01
sS'affect'
p38
I01
sS'ala'
p39
I01
sS'vast'
p40
I01
sS'whoopi'
p41
I01
sS'school'
p42
I01
sS'traumat'
p43
I01
sS'prize'
p44
I01
sS'wooden'
p45
I01
sS'showcas'
p46
I01
sS'funnier'
p47
I01
sS'defens'
p48
I01
sS'samurai'
p49
I01
sS'disc'
p50
I01
sS'errol'
p51
I01
sS'wholli'
p52
I01
sS'jennif'
p53
I01
sS'triumph'
p54
I01
sS'iran'
p55
I01
sS'enjoy'
p56
I01
sS'chew'
p57
I01
sS'bo'
p58
I01
sS'speci'
p59
I01
sS'miller'
p60
I01
sS'naiv'
p61
I01
sS'bacon'
p62
I01
sS'direct'
p63
I01
sS'histor'
p64
I01
sS'nail'
p65
I01
sS'consequ'
p66
I01
sS'second'
p67
I01
sS'street'
p68
I01
sS'streep'
p69
I01
sS'kidnap'
p70
I01
sS'virgin'
p71
I01
sS'even'
p72
I01
sS'aim'
p73
I01
sS'dialogu'
p74
I01
sS'kolchak'
p75
I01
sS'hide'
p76
I01
sS'christ'
p77
I01
sS'wreck'
p78
I01
sS'ruthless'
p79
I01
sS'amus'
p80
I01
sS'asid'
p81
I01
sS'weren'
p82
I01
sS'poison'
p83
I01
sS'sung'
p84
I01
sS'recognis'
p85
I01
sS'ain'
p86
I01
sS'filmmak'
p87
I01
sS'streisand'
p88
I01
sS'conduct'
p89
I01
sS'new'
p90
I01
sS'ever'
p91
I01
sS'liberti'
p92
I01
sS'told'
p93
I01
sS'afterward'
p94
I01
sS'intellectu'
p95
I01
sS'hero'
p96
I01
sS'behavior'
p97
I01
sS'mel'
p98
I01
sS'never'
p99
I01
sS'drew'
p100
I01
sS'argu'
p101
I01
sS'met'
p102
I01
sS'porno'
p103
I01
sS'china'
p104
I01
sS'pursuit'
p105
I01
sS'cult'
p106
I01
sS'path'
p107
I01
sS'pleasur'
p108
I01
sS'interpret'
p109
I01
sS'daughter'
p110
I01
sS'crystal'
p111
I01
sS'eugen'
p112
I01
sS'announc'
p113
I01
sS'militari'
p114
I01
sS'anymor'
p115
I01
sS'jail'
p116
I01
sS'everyon'
p117
I01
sS'dri'
p118
I01
sS'jame'
p119
I01
sS'saint'
p120
I01
sS'smoke'
p121
I01
sS'zombi'
p122
I01
sS'studi'
p123
I01
sS'+'
p124
I01
sS'jami'
p125
I01
sS'fell'
p126
I01
sS'theori'
p127
I01
sS'tremend'
p128
I01
sS'golden'
p129
I01
sS'aveng'
p130
I01
sS'imposs'
p131
I01
sS'campaign'
p132
I01
sS'newspap'
p133
I01
sS'stink'
p134
I01
sS'julia'
p135
I01
sS'mitchel'
p136
I01
sS'brought'
p137
I01
sS'invas'
p138
I01
sS'attitud'
p139
I01
sS'moral'
p140
I01
sS'eastwood'
p141
I01
sS'spooki'
p142
I01
sS'total'
p143
I01
sS'unit'
p144
I01
sS'sarah'
p145
I01
sS'plot'
p146
I01
sS'describ'
p147
I01
sS'subtleti'
p148
I01
sS'princess'
p149
I01
sS'plod'
p150
I01
sS'foster'
p151
I01
sS'call'
p152
I01
sS'calm'
p153
I01
sS'giallo'
p154
I01
sS'recommend'
p155
I01
sS'strike'
p156
I01
sS'torment'
p157
I01
sS'preview'
p158
I01
sS'type'
p159
I01
sS'tell'
p160
I01
sS'relax'
p161
I01
sS'oscar'
p162
I01
sS'relat'
p163
I01
sS'mutant'
p164
I01
sS'notic'
p165
I01
sS'hurt'
p166
I01
sS'warn'
p167
I01
sS'phone'
p168
I01
sS'berlin'
p169
I01
sS'warm'
p170
I01
sS'grandfath'
p171
I01
sS'adult'
p172
I01
sS'holi'
p173
I01
sS'smile'
p174
I01
sS'yard'
p175
I01
sS'hole'
p176
I01
sS'hold'
p177
I01
sS'phoni'
p178
I01
sS'must'
p179
I01
sS'shoot'
p180
I01
sS'accid'
p181
I01
sS'springer'
p182
I01
sS'word'
p183
I01
sS'room'
p184
I01
sS'jess'
p185
I01
sS'mm'
p186
I01
sS'hideous'
p187
I01
sS'work'
p188
I01
sS'worm'
p189
I01
sS'worn'
p190
I01
sS'wors'
p191
I01
sS'norm'
p192
I01
sS'ms'
p193
I01
sS'mr'
p194
I01
sS'root'
p195
I01
sS'incompet'
p196
I01
sS'wang'
p197
I01
sS'climat'
p198
I01
sS'give'
p199
I01
sS'pie'
p200
I01
sS'climax'
p201
I01
sS'captiv'
p202
I01
sS'india'
p203
I01
sS'digit'
p204
I01
sS'exquisit'
p205
I01
sS'frighten'
p206
I01
sS'liter'
p207
I01
sS'walsh'
p208
I01
sS'british'
p209
I01
sS'want'
p210
I01
sS'basebal'
p211
I01
sS'david'
p212
I01
sS'attract'
p213
I01
sS'recov'
p214
I01
sS'end'
p215
I01
sS'turn'
p216
I01
sS'polic'
p217
I01
sS'travel'
p218
I01
sS'fals'
p219
I01
sS'hot'
p220
I01
sS'morbid'
p221
I01
sS'hop'
p222
I01
sS'answer'
p223
I01
sS'disappoint'
p224
I01
sS'perspect'
p225
I01
sS'confid'
p226
I01
sS'fever'
p227
I01
sS'recogn'
p228
I01
sS'elizabeth'
p229
I01
sS'miik'
p230
I01
sS'mess'
p231
I01
sS'chines'
p232
I01
sS'earlier'
p233
I01
sS'vicious'
p234
I01
sS'lab'
p235
I01
sS'befor'
p236
I01
sS'wrong'
p237
I01
sS'teenag'
p238
I01
sS'lay'
p239
I01
sS'beauti'
p240
I01
sS'retain'
p241
I01
sS'law'
p242
I01
sS'lesbian'
p243
I01
sS'demonstr'
p244
I01
sS'shirt'
p245
I01
sS'wrestl'
p246
I01
sS'falk'
p247
I01
sS'principl'
p248
I01
sS'attempt'
p249
I01
sS'splendid'
p250
I01
sS'third'
p251
I01
sS'dealer'
p252
I01
sS'minim'
p253
I01
sS'revolt'
p254
I01
sS'lost'
p255
I01
sS'revolv'
p256
I01
sS'think'
p257
I01
sS'receiv'
p258
I01
sS'maintain'
p259
I01
sS'environ'
p260
I01
sS'footag'
p261
I01
sS'incorpor'
p262
I01
sS'enter'
p263
I01
sS'exclus'
p264
I01
sS'worst'
p265
I01
sS'order'
p266
I01
sS'wind'
p267
I01
sS'factori'
p268
I01
sS'blind'
p269
I01
sS'composit'
p270
I01
sS'soderbergh'
p271
I01
sS'glover'
p272
I01
sS'offici'
p273
I01
sS'govern'
p274
I01
sS'orang'
p275
I01
sS'becaus'
p276
I01
sS'murray'
p277
I01
sS'bunni'
p278
I01
sS'frankenstein'
p279
I01
sS'modesti'
p280
I01
sS'london'
p281
I01
sS'incid'
p282
I01
sS'appar'
p283
I01
sS'japan'
p284
I01
sS'hook'
p285
I01
sS'mayor'
p286
I01
sS'gentl'
p287
I01
sS'fit'
p288
I01
sS'del'
p289
I01
sS'fix'
p290
I01
sS'christoph'
p291
I01
sS'hypnot'
p292
I01
sS'crew'
p293
I01
sS'better'
p294
I01
sS'spoken'
p295
I01
sS'offic'
p296
I01
sS'strand'
p297
I01
sS'fade'
p298
I01
sS'hidden'
p299
I01
sS'easier'
p300
I01
sS'descend'
p301
I01
sS'versus'
p302
I01
sS'anim'
p303
I01
sS'tourist'
p304
I01
sS'gerard'
p305
I01
sS'promin'
p306
I01
sS'safe'
p307
I01
sS'disturb'
p308
I01
sS'kumar'
p309
I01
sS'break'
p310
I01
sS'band'
p311
I01
sS'bang'
p312
I01
sS'promis'
p313
I01
sS'interrupt'
p314
I01
sS'resourc'
p315
I01
sS'downright'
p316
I01
sS'rental'
p317
I01
sS'silver'
p318
I01
sS'bank'
p319
I01
sS'counter'
p320
I01
sS'choic'
p321
I01
sS'tendenc'
p322
I01
sS'alex'
p323
I01
sS'meat'
p324
I01
sS'arrog'
p325
I01
sS'debut'
p326
I01
sS'l'
p327
I01
sS'luca'
p328
I01
sS'arrow'
p329
I01
sS'went'
p330
I01
sS'european'
p331
I01
sS'oblig'
p332
I01
sS'side'
p333
I01
sS'bone'
p334
I01
sS'luck'
p335
I01
sS'armi'
p336
I01
sS'diana'
p337
I01
sS'colleagu'
p338
I01
sS'enorm'
p339
I01
sS'spider'
p340
I01
sS'oppos'
p341
I01
sS'kirk'
p342
I01
sS'taught'
p343
I01
sS'gandhi'
p344
I01
sS'forgot'
p345
I01
sS'dawn'
p346
I01
sS'despis'
p347
I01
sS'saturday'
p348
I01
sS'whip'
p349
I01
sS'incomprehens'
p350
I01
sS'depress'
p351
I01
sS'network'
p352
I01
sS'goe'
p353
I01
sS'god'
p354
I01
sS'newli'
p355
I01
sS'crucial'
p356
I01
sS'content'
p357
I01
sS're'
p358
I01
sS'palac'
p359
I01
sS'daniel'
p360
I01
sS'pool'
p361
I01
sS'adapt'
p362
I01
sS'reader'
p363
I01
sS'got'
p364
I01
sS'unimagin'
p365
I01
sS'forth'
p366
I01
sS'forti'
p367
I01
sS'gate'
p368
I01
sS'worthwhil'
p369
I01
sS'dracula'
p370
I01
sS'nightmar'
p371
I01
sS'situat'
p372
I01
sS'sheer'
p373
I01
sS'free'
p374
I01
sS'standard'
p375
I01
sS'redempt'
p376
I01
sS'rain'
p377
I01
sS'mistress'
p378
I01
sS'pretend'
p379
I01
sS'christma'
p380
I01
sS'lousi'
p381
I01
sS'sunshin'
p382
I01
sS'puzzl'
p383
I01
sS'maniac'
p384
I01
sS'angl'
p385
I01
sS'ritual'
p386
I01
sS'flawless'
p387
I01
sS'heck'
p388
I01
sS'isn'
p389
I01
sS'startl'
p390
I01
sS'fought'
p391
I01
sS'kingdom'
p392
I01
sS'bike'
p393
I01
sS'subtl'
p394
I01
sS'onto'
p395
I01
sS'bite'
p396
I01
sS'stewart'
p397
I01
sS'storylin'
p398
I01
sS'rang'
p399
I01
sS'duval'
p400
I01
sS'render'
p401
I01
sS'psychic'
p402
I01
sS'grade'
p403
I01
sS'brazil'
p404
I01
sS'independ'
p405
I01
sS'wast'
p406
I01
sS'rank'
p407
I01
sS'restrict'
p408
I01
sS'wash'
p409
I01
sS'unlik'
p410
I01
sS'alreadi'
p411
I01
sS'wasn'
p412
I01
sS'comic'
p413
I01
sS'agre'
p414
I01
sS'fantast'
p415
I01
sS'primari'
p416
I01
sS'hood'
p417
I01
sS'toy'
p418
I01
sS'nomin'
p419
I01
sS'top'
p420
I01
sS'sometim'
p421
I01
sS'fiction'
p422
I01
sS'timothi'
p423
I01
sS'master'
p424
I01
sS'overact'
p425
I01
sS'tom'
p426
I01
sS'hollywood'
p427
I01
sS'john'
p428
I01
sS'bitter'
p429
I01
sS'listen'
p430
I01
sS'gordon'
p431
I01
sS'urban'
p432
I01
sS'murder'
p433
I01
sS'fido'
p434
I01
sS'ladder'
p435
I01
sS'ted'
p436
I01
sS'tool'
p437
I01
sS'albert'
p438
I01
sS'took'
p439
I01
sS'wisdom'
p440
I01
sS'obnoxi'
p441
I01
sS'western'
p442
I01
sS'somewhat'
p443
I01
sS'conserv'
p444
I01
sS'happili'
p445
I01
sS'horn'
p446
I01
sS'crawl'
p447
I01
sS'technic'
p448
I01
sS'hallucin'
p449
I01
sS'spoiler'
p450
I01
sS'trek'
p451
I01
sS'peril'
p452
I01
sS'silli'
p453
I01
sS'romp'
p454
I01
sS'provid'
p455
I01
sS'coward'
p456
I01
sS'older'
p457
I01
sS'tree'
p458
I01
sS'rate'
p459
I01
sS'hilari'
p460
I01
sS'project'
p461
I01
sS'matter'
p462
I01
sS'guilt'
p463
I01
sS'cabin'
p464
I01
sS'iron'
p465
I01
sS'mst'
p466
I01
sS'k'
p467
I01
sS'minut'
p468
I01
sS'minus'
p469
I01
sS'screenplay'
p470
I01
sS'mini'
p471
I01
sS'fashion'
p472
I01
sS'corni'
p473
I01
sS'ran'
p474
I01
sS'modern'
p475
I01
sS'mind'
p476
I01
sS'mine'
p477
I01
sS'ginger'
p478
I01
sS'drip'
p479
I01
sS'raw'
p480
I01
sS'rat'
p481
I01
sS'seed'
p482
I01
sS'manner'
p483
I01
sS'rap'
p484
I01
sS'edgi'
p485
I01
sS'seen'
p486
I01
sS'seem'
p487
I01
sS'seek'
p488
I01
sS'dozen'
p489
I01
sS'ponder'
p490
I01
sS'strength'
p491
I01
sS'realm'
p492
I01
sS'recreat'
p493
I01
sS'terrif'
p494
I01
sS'unpleas'
p495
I01
sS'latter'
p496
I01
sS'cope'
p497
I01
sS'snow'
p498
I01
sS'thorough'
p499
I01
sS'casual'
p500
I01
sS'chest'
p501
I01
sS'funer'
p502
I01
sS'chess'
p503
I01
sS'hum'
p504
I01
sS'thoma'
p505
I01
sS'rider'
p506
I01
sS'blue'
p507
I01
sS'crippl'
p508
I01
sS'germani'
p509
I01
sS'plenti'
p510
I01
sS'though'
p511
I01
sS'bruce'
p512
I01
sS'object'
p513
I01
sS'victoria'
p514
I01
sS'marin'
p515
I01
sS'mario'
p516
I01
sS'regular'
p517
I01
sS'mouth'
p518
I01
sS'addict'
p519
I01
sS'letter'
p520
I01
sS'jean'
p521
I01
sS'thriller'
p522
I01
sS'glow'
p523
I01
sS'tradit'
p524
I01
sS'singer'
p525
I01
sS'excus'
p526
I01
sS'don'
p527
I01
sS'doo'
p528
I01
sS'doc'
p529
I01
sS'professor'
p530
I01
sS'camp'
p531
I01
sS'm'
p532
I01
sS'dog'
p533
I01
sS'doe'
p534
I01
sS'declar'
p535
I01
sS'tech'
p536
I01
sS'technicolor'
p537
I01
sS'scream'
p538
I01
sS'came'
p539
I01
sS'marvel'
p540
I01
sS'pant'
p541
I01
sS'beaten'
p542
I01
sS'bomb'
p543
I01
sS'endear'
p544
I01
sS'saga'
p545
I01
sS'opposit'
p546
I01
sS'random'
p547
I01
sS'dicken'
p548
I01
sS'unfunni'
p549
I01
sS'radio'
p550
I01
sS'shirley'
p551
I01
sS'radic'
p552
I01
sS'earth'
p553
I01
sS'involv'
p554
I01
sS'despit'
p555
I01
sS'peck'
p556
I01
sS'soldier'
p557
I01
sS'acquir'
p558
I01
sS'spite'
p559
I01
sS'carrey'
p560
I01
sS'explain'
p561
I01
sS'cinemat'
p562
I01
sS'myth'
p563
I01
sS'restaur'
p564
I01
sS'bust'
p565
I01
sS'dreari'
p566
I01
sS'theme'
p567
I01
sS'busi'
p568
I01
sS'rick'
p569
I01
sS'rich'
p570
I01
sS'chamberlain'
p571
I01
sS'predecessor'
p572
I01
sS'godzilla'
p573
I01
sS'air'
p574
I01
sS'nasti'
p575
I01
sS'de'
p576
I01
sS'stop'
p577
I01
sS'coast'
p578
I01
sS'pocket'
p579
I01
sS'amazon'
p580
I01
sS'giggl'
p581
I01
sS'meyer'
p582
I01
sS'report'
p583
I01
sS'dr'
p584
I01
sS'sabrina'
p585
I01
sS'aforement'
p586
I01
sS'earl'
p587
I01
sS'bat'
p588
I01
sS'bar'
p589
I01
sS'crocodil'
p590
I01
sS'sacrific'
p591
I01
sS'bay'
p592
I01
sS'twice'
p593
I01
sS'bad'
p594
I01
sS'disney'
p595
I01
sS'ban'
p596
I01
sS'movement'
p597
I01
sS'steal'
p598
I01
sS'steam'
p599
I01
sS'respond'
p600
I01
sS'blew'
p601
I01
sS'vampir'
p602
I01
sS'victim'
p603
I01
sS'fair'
p604
I01
sS'habit'
p605
I01
sS'nut'
p606
I01
sS'elimin'
p607
I01
sS'preston'
p608
I01
sS'resist'
p609
I01
sS'cannib'
p610
I01
sS'result'
p611
I01
sS'respons'
p612
I01
sS'fail'
p613
I01
sS'christian'
p614
I01
sS'hammer'
p615
I01
sS'plight'
p616
I01
sS'best'
p617
I01
sS'subject'
p618
I01
sS'lovabl'
p619
I01
sS'awar'
p620
I01
sS'crown'
p621
I01
sS'said'
p622
I01
sS'profession'
p623
I01
sS'away'
p624
I01
sS'gentleman'
p625
I01
sS'discoveri'
p626
I01
sS'figur'
p627
I01
sS'score'
p628
I01
sS'outstand'
p629
I01
sS'finger'
p630
I01
sS'atroc'
p631
I01
sS'drawn'
p632
I01
sS'enlighten'
p633
I01
sS'approach'
p634
I01
sS'attribut'
p635
I01
sS'inabl'
p636
I01
sS'accord'
p637
I01
sS'men'
p638
I01
sS'extend'
p639
I01
sS'mgm'
p640
I01
sS'weak'
p641
I01
sS'metal'
p642
I01
sS'boss'
p643
I01
sS'ww'
p644
I01
sS'weav'
p645
I01
sS'lazi'
p646
I01
sS'unabl'
p647
I01
sS'wear'
p648
I01
sS'unfold'
p649
I01
sS'news'
p650
I01
sS'advertis'
p651
I01
sS'debt'
p652
I01
sS'roller'
p653
I01
sS'kitchen'
p654
I01
sS'cop'
p655
I01
sS'protect'
p656
I01
sS'accident'
p657
I01
sS'expos'
p658
I01
sS'updat'
p659
I01
sS'cox'
p660
I01
sS'ill'
p661
I01
sS'elm'
p662
I01
sS'misguid'
p663
I01
sS'edgar'
p664
I01
sS'piti'
p665
I01
sS'logic'
p666
I01
sS'countri'
p667
I01
sS'com'
p668
I01
sS'kansa'
p669
I01
sS'con'
p670
I01
sS'compromis'
p671
I01
sS'rehash'
p672
I01
sS'skill'
p673
I01
sS'assur'
p674
I01
sS'tough'
p675
I01
sS'pose'
p676
I01
sS'toni'
p677
I01
sS'royal'
p678
I01
sS'territori'
p679
I01
sS'height'
p680
I01
sS'kurosawa'
p681
I01
sS'canyon'
p682
I01
sS'michell'
p683
I01
sS'quinn'
p684
I01
sS'dougla'
p685
I01
sS'paradis'
p686
I01
sS'guid'
p687
I01
sS'assum'
p688
I01
sS'hitler'
p689
I01
sS'speak'
p690
I01
sS'code'
p691
I01
sS'bathroom'
p692
I01
sS'strong'
p693
I01
sS'angel'
p694
I01
sS'nonsens'
p695
I01
sS'union'
p696
I01
sS'fri'
p697
I01
sS'monk'
p698
I01
sS'convolut'
p699
I01
sS'three'
p700
I01
sS'beer'
p701
I01
sS'much'
p702
I01
sS'interest'
p703
I01
sS'basic'
p704
I01
sS'monologu'
p705
I01
sS'scarecrow'
p706
I01
sS'warmth'
p707
I01
sS'tini'
p708
I01
sS'threw'
p709
I01
sS'life'
p710
I01
sS'deeper'
p711
I01
sS'spit'
p712
I01
sS'eastern'
p713
I01
sS'dismiss'
p714
I01
sS'worker'
p715
I01
sS'anywher'
p716
I01
sS'ustinov'
p717
I01
sS'dave'
p718
I01
sS'craft'
p719
I01
sS'alley'
p720
I01
sS'child'
p721
I01
sS'catch'
p722
I01
sS'spin'
p723
I01
sS'davi'
p724
I01
sS'chill'
p725
I01
sS'ugli'
p726
I01
sS'ident'
p727
I01
sS'tank'
p728
I01
sS'screenwrit'
p729
I01
sS'servic'
p730
I01
sS'properti'
p731
I01
sS'commerci'
p732
I01
sS'n'
p733
I01
sS'lesser'
p734
I01
sS'near'
p735
I01
sS'gritti'
p736
I01
sS'marriag'
p737
I01
sS'hopkin'
p738
I01
sS'occas'
p739
I01
sS'aid'
p740
I01
sS'vagu'
p741
I01
sS'anchor'
p742
I01
sS'seven'
p743
I01
sS'mexico'
p744
I01
sS'theatr'
p745
I01
sS'tabl'
p746
I01
sS'bradi'
p747
I01
sS'iv'
p748
I01
sS'ii'
p749
I01
sS'player'
p750
I01
sS'cant'
p751
I01
sS'im'
p752
I01
sS'antwon'
p753
I01
sS'madonna'
p754
I01
sS'uplift'
p755
I01
sS'unforgett'
p756
I01
sS'ie'
p757
I01
sS'sever'
p758
I01
sS'grown'
p759
I01
sS'precis'
p760
I01
sS'hong'
p761
I01
sS'descent'
p762
I01
sS'credit'
p763
I01
sS'perform'
p764
I01
sS'suggest'
p765
I01
sS'make'
p766
I01
sS'wound'
p767
I01
sS'airport'
p768
I01
sS'dazzl'
p769
I01
sS'dean'
p770
I01
sS'complex'
p771
I01
sS'split'
p772
I01
sS'jungl'
p773
I01
sS'global'
p774
I01
sS'costum'
p775
I01
sS'jerri'
p776
I01
sS'complet'
p777
I01
sS'hank'
p778
I01
sS'evid'
p779
I01
sS'social'
p780
I01
sS'hang'
p781
I01
sS'evil'
p782
I01
sS'hand'
p783
I01
sS'delight'
p784
I01
sS'simmon'
p785
I01
sS'rais'
p786
I01
sS'ingeni'
p787
I01
sS'esther'
p788
I01
sS'kim'
p789
I01
sS'rex'
p790
I01
sS'jealous'
p791
I01
sS'overr'
p792
I01
sS'tune'
p793
I01
sS'kid'
p794
I01
sS'campi'
p795
I01
sS'geek'
p796
I01
sS'kept'
p797
I01
sS'scenario'
p798
I01
sS'roommat'
p799
I01
sS'inherit'
p800
I01
sS'ocean'
p801
I01
sS'bloodi'
p802
I01
sS'contact'
p803
I01
sS'greatest'
p804
I01
sS'mother'
p805
I01
sS'programm'
p806
I01
sS'everyth'
p807
I01
sS'controversi'
p808
I01
sS'left'
p809
I01
sS'identifi'
p810
I01
sS'birth'
p811
I01
sS'just'
p812
I01
sS'charlott'
p813
I01
sS'photo'
p814
I01
sS'nowaday'
p815
I01
sS'elabor'
p816
I01
sS'unfair'
p817
I01
sS'nineti'
p818
I01
sS'human'
p819
I01
sS'flynn'
p820
I01
sS'yes'
p821
I01
sS'yet'
p822
I01
sS'languag'
p823
I01
sS'previous'
p824
I01
sS'awaken'
p825
I01
sS'hal'
p826
I01
sS'ham'
p827
I01
sS'easi'
p828
I01
sS'sinatra'
p829
I01
sS'thick'
p830
I01
sS'character'
p831
I01
sS'mundan'
p832
I01
sS'sensat'
p833
I01
sS'hay'
p834
I01
sS'shout'
p835
I01
sS'spread'
p836
I01
sS'board'
p837
I01
sS'endur'
p838
I01
sS'els'
p839
I01
sS'save'
p840
I01
sS'hat'
p841
I01
sS'gave'
p842
I01
sS'bakshi'
p843
I01
sS'mayb'
p844
I01
sS'preserv'
p845
I01
sS'arab'
p846
I01
sS'posey'
p847
I01
sS'tarzan'
p848
I01
sS'leagu'
p849
I01
sS'background'
p850
I01
sS'linda'
p851
I01
sS'shadow'
p852
I01
sS'rumor'
p853
I01
sS'apart'
p854
I01
sS'shoulder'
p855
I01
sS'measur'
p856
I01
sS'gift'
p857
I01
sS'specif'
p858
I01
sS'fay'
p859
I01
sS'contradict'
p860
I01
sS'nude'
p861
I01
sS'hunt'
p862
I01
sS'negat'
p863
I01
sS'mechan'
p864
I01
sS'darn'
p865
I01
sS'divers'
p866
I01
sS'remind'
p867
I01
sS'pervers'
p868
I01
sS'night'
p869
I01
sS'hung'
p870
I01
sS'incoher'
p871
I01
sS'unnecessari'
p872
I01
sS'attorney'
p873
I01
sS'right'
p874
I01
sS'old'
p875
I01
sS'crowd'
p876
I01
sS'disord'
p877
I01
sS'paltrow'
p878
I01
sS'somehow'
p879
I01
sS'dead'
p880
I01
sS'wwe'
p881
I01
sS'born'
p882
I01
sS'intern'
p883
I01
sS'downey'
p884
I01
sS'dear'
p885
I01
sS'bore'
p886
I01
sS'creep'
p887
I01
sS'witti'
p888
I01
sS'chorus'
p889
I01
sS'deaf'
p890
I01
sS'humor'
p891
I01
sS'combat'
p892
I01
sS'bottom'
p893
I01
sS'ear'
p894
I01
sS'bett'
p895
I01
sS'fox'
p896
I01
sS'arthur'
p897
I01
sS'ice'
p898
I01
sS'eddi'
p899
I01
sS'eleph'
p900
I01
sS'fog'
p901
I01
sS'overcom'
p902
I01
sS'myer'
p903
I01
sS'condit'
p904
I01
sS'traci'
p905
I01
sS'matthau'
p906
I01
sS'core'
p907
I01
sS'sensibl'
p908
I01
sS'lure'
p909
I01
sS'bold'
p910
I01
sS'tour'
p911
I01
sS'bobbi'
p912
I01
sS'buri'
p913
I01
sS'blackmail'
p914
I01
sS'burt'
p915
I01
sS'protagonist'
p916
I01
sS'colleg'
p917
I01
sS'promot'
p918
I01
sS'cruis'
p919
I01
sS'khan'
p920
I01
sS'post'
p921
I01
sS'super'
p922
I01
sS'spoke'
p923
I01
sS'chapter'
p924
I01
sS'alexand'
p925
I01
sS'eat'
p926
I01
sS'cowboy'
p927
I01
sS'v'
p928
I01
sS'literatur'
p929
I01
sS'surround'
p930
I01
sS'unfortun'
p931
I01
sS'festiv'
p932
I01
sS'dinner'
p933
I01
sS'despair'
p934
I01
sS'plus'
p935
I01
sS'afternoon'
p936
I01
sS'tacki'
p937
I01
sS'commit'
p938
I01
sS'kyle'
p939
I01
sS'produc'
p940
I01
sS'bath'
p941
I01
sS'duke'
p942
I01
sS'civil'
p943
I01
sS'tackl'
p944
I01
sS'float'
p945
I01
sS'contriv'
p946
I01
sS'bound'
p947
I01
sS'son'
p948
I01
sS'creativ'
p949
I01
sS'wrap'
p950
I01
sS'opportun'
p951
I01
sS'insult'
p952
I01
sS'rant'
p953
I01
sS'inhabit'
p954
I01
sS'east'
p955
I01
sS'deal'
p956
I01
sS'suffici'
p957
I01
sS'psychot'
p958
I01
sS'quirki'
p959
I01
sS'support'
p960
I01
sS'omen'
p961
I01
sS'transform'
p962
I01
sS'fight'
p963
I01
sS'avail'
p964
I01
sS'stuck'
p965
I01
sS'anderson'
p966
I01
sS'joseph'
p967
I01
sS'editor'
p968
I01
sS'way'
p969
I01
sS'spring'
p970
I01
sS'jane'
p971
I01
sS'music'
p972
I01
sS'devil'
p973
I01
sS'war'
p974
I01
sS'neo'
p975
I01
sS'lowest'
p976
I01
sS'head'
p977
I01
sS'medium'
p978
I01
sS'amateur'
p979
I01
sS'form'
p980
I01
sS'offer'
p981
I01
sS'forc'
p982
I01
sS'batman'
p983
I01
sS'heal'
p984
I01
sS'spike'
p985
I01
sS'unconvinc'
p986
I01
sS'oil'
p987
I01
sS'ford'
p988
I01
sS'catchi'
p989
I01
sS'heat'
p990
I01
sS'hear'
p991
I01
sS'choreograph'
p992
I01
sS'true'
p993
I01
sS'butler'
p994
I01
sS'basketbal'
p995
I01
sS'absent'
p996
I01
sS'ami'
p997
I01
sS'revel'
p998
I01
sS'daddi'
p999
I01
sS'mtv'
p1000
I01
sS'bargain'
p1001
I01
sS'immers'
p1002
I01
sS'absenc'
p1003
I01
sS'fundament'
p1004
I01
sS'unrel'
p1005
I01
sS'retir'
p1006
I01
sS'trio'
p1007
I01
sS'featur'
p1008
I01
sS'alongsid'
p1009
I01
sS'classic'
p1010
I01
sS'stronger'
p1011
I01
sS'nobodi'
p1012
I01
sS'israel'
p1013
I01
sS'stallon'
p1014
I01
sS'sale'
p1015
I01
sS'goldberg'
p1016
I01
sS'exist'
p1017
I01
sS'glanc'
p1018
I01
sS'valentin'
p1019
I01
sS'furi'
p1020
I01
sS'nuditi'
p1021
I01
sS'ship'
p1022
I01
sS'tooth'
p1023
I01
sS'trip'
p1024
I01
sS'assembl'
p1025
I01
sS'floor'
p1026
I01
sS'holli'
p1027
I01
sS'stake'
p1028
I01
sS'excel'
p1029
I01
sS'actor'
p1030
I01
sS'tim'
p1031
I01
sS'role'
p1032
I01
sS'communic'
p1033
I01
sS'jone'
p1034
I01
sS'test'
p1035
I01
sS'tie'
p1036
I01
sS'presum'
p1037
I01
sS'roll'
p1038
I01
sS'realiti'
p1039
I01
sS'tame'
p1040
I01
sS'matur'
p1041
I01
sS'intend'
p1042
I01
sS'devot'
p1043
I01
sS'felt'
p1044
I01
sS'intens'
p1045
I01
sS'intent'
p1046
I01
sS'award'
p1047
I01
sS'consid'
p1048
I01
sS'businessman'
p1049
I01
sS'muslim'
p1050
I01
sS'cooper'
p1051
I01
sS'weekend'
p1052
I01
sS'troop'
p1053
I01
sS'grief'
p1054
I01
sS'femal'
p1055
I01
sS'shootout'
p1056
I01
sS'rabbit'
p1057
I01
sS'faster'
p1058
I01
sS'furthermor'
p1059
I01
sS'glass'
p1060
I01
sS'pseudo'
p1061
I01
sS'mall'
p1062
I01
sS'jacket'
p1063
I01
sS'pet'
p1064
I01
sS'loyal'
p1065
I01
sS'vietnam'
p1066
I01
sS'ignor'
p1067
I01
sS'time'
p1068
I01
sS'push'
p1069
I01
sS'serious'
p1070
I01
sS'backward'
p1071
I01
sS'daili'
p1072
I01
sS'exposur'
p1073
I01
sS'snl'
p1074
I01
sS'concept'
p1075
I01
sS'doctor'
p1076
I01
sS'chain'
p1077
I01
sS'whoever'
p1078
I01
sS'skip'
p1079
I01
sS'rob'
p1080
I01
sS'celebr'
p1081
I01
sS'rod'
p1082
I01
sS'focus'
p1083
I01
sS'invent'
p1084
I01
sS'laura'
p1085
I01
sS'known'
p1086
I01
sS'mild'
p1087
I01
sS'stumbl'
p1088
I01
sS'nephew'
p1089
I01
sS'skin'
p1090
I01
sS'dalton'
p1091
I01
sS'chair'
p1092
I01
sS'seller'
p1093
I01
sS'ward'
p1094
I01
sS'row'
p1095
I01
sS'decid'
p1096
I01
sS'uneven'
p1097
I01
sS'depend'
p1098
I01
sS'zone'
p1099
I01
sS'recognit'
p1100
I01
sS'flash'
p1101
I01
sS'father'
p1102
I01
sS'substitut'
p1103
I01
sS'german'
p1104
I01
sS'oz'
p1105
I01
sS'decis'
p1106
I01
sS'rhythm'
p1107
I01
sS'terror'
p1108
I01
sS'clint'
p1109
I01
sS'dimens'
p1110
I01
sS'timon'
p1111
I01
sS'brown'
p1112
I01
sS'sourc'
p1113
I01
sS'sappi'
p1114
I01
sS'string'
p1115
I01
sS'jerk'
p1116
I01
sS'ensu'
p1117
I01
sS'rendit'
p1118
I01
sS'underr'
p1119
I01
sS'clich'
p1120
I01
sS'lynch'
p1121
I01
sS'convict'
p1122
I01
sS'cook'
p1123
I01
sS'join'
p1124
I01
sS'blast'
p1125
I01
sS'exact'
p1126
I01
sS'forgett'
p1127
I01
sS'cool'
p1128
I01
sS'dim'
p1129
I01
sS'din'
p1130
I01
sS'slapstick'
p1131
I01
sS'valuabl'
p1132
I01
sS'vet'
p1133
I01
sS'level'
p1134
I01
sS'tear'
p1135
I01
sS'die'
p1136
I01
sS'henri'
p1137
I01
sS'brother'
p1138
I01
sS'p'
p1139
I01
sS'belushi'
p1140
I01
sS'q'
p1141
I01
sS'team'
p1142
I01
sS'quick'
p1143
I01
sS'guy'
p1144
I01
sS'recogniz'
p1145
I01
sS'round'
p1146
I01
sS'librari'
p1147
I01
sS'upper'
p1148
I01
sS'brave'
p1149
I01
sS'boxer'
p1150
I01
sS'regret'
p1151
I01
sS'porn'
p1152
I01
sS'trend'
p1153
I01
sS'compens'
p1154
I01
sS'sign'
p1155
I01
sS'neglect'
p1156
I01
sS'cost'
p1157
I01
sS'roof'
p1158
I01
sS'alfr'
p1159
I01
sS'run'
p1160
I01
sS'helpless'
p1161
I01
sS'bake'
p1162
I01
sS'rough'
p1163
I01
sS'rapist'
p1164
I01
sS'appear'
p1165
I01
sS'filler'
p1166
I01
sS'feat'
p1167
I01
sS'favour'
p1168
I01
sS'melt'
p1169
I01
sS'uniform'
p1170
I01
sS'current'
p1171
I01
sS'grotesqu'
p1172
I01
sS'suspect'
p1173
I01
sS'goer'
p1174
I01
sS'indiffer'
p1175
I01
sS'appeal'
p1176
I01
sS'era'
p1177
I01
sS'burn'
p1178
I01
sS'deriv'
p1179
I01
sS'nuanc'
p1180
I01
sS'abrupt'
p1181
I01
sS'clerk'
p1182
I01
sS'makeup'
p1183
I01
sS'french'
p1184
I01
sS'caricatur'
p1185
I01
sS'water'
p1186
I01
sS'entertain'
p1187
I01
sS'witch'
p1188
I01
sS'address'
p1189
I01
sS'noir'
p1190
I01
sS'along'
p1191
I01
sS'teacher'
p1192
I01
sS'wait'
p1193
I01
sS'box'
p1194
I01
sS'boy'
p1195
I01
sS'hbo'
p1196
I01
sS'insan'
p1197
I01
sS'sheriff'
p1198
I01
sS'shove'
p1199
I01
sS'canadian'
p1200
I01
sS'brilliant'
p1201
I01
sS'shift'
p1202
I01
sS'jay'
p1203
I01
sS'dixon'
p1204
I01
sS'bow'
p1205
I01
sS'cusack'
p1206
I01
sS'trial'
p1207
I01
sS'behav'
p1208
I01
sS'thirti'
p1209
I01
sS'paxton'
p1210
I01
sS'extrem'
p1211
I01
sS'weird'
p1212
I01
sS'guilti'
p1213
I01
sS'ourselv'
p1214
I01
sS'preposter'
p1215
I01
sS'elect'
p1216
I01
sS'santa'
p1217
I01
sS'humour'
p1218
I01
sS'extra'
p1219
I01
sS'prefer'
p1220
I01
sS'anni'
p1221
I01
sS'till'
p1222
I01
sS'pierc'
p1223
I01
sS'fake'
p1224
I01
sS'instal'
p1225
I01
sS'fbi'
p1226
I01
sS'shelley'
p1227
I01
sS'market'
p1228
I01
sS'eccentr'
p1229
I01
sS'reminisc'
p1230
I01
sS'franci'
p1231
I01
sS'andi'
p1232
I01
sS'vivid'
p1233
I01
sS'prove'
p1234
I01
sS'sake'
p1235
I01
sS'univers'
p1236
I01
sS'visit'
p1237
I01
sS'angela'
p1238
I01
sS'everybodi'
p1239
I01
sS'live'
p1240
I01
sS'prey'
p1241
I01
sS'tape'
p1242
I01
sS'australian'
p1243
I01
sS'thru'
p1244
I01
sS'household'
p1245
I01
sS'today'
p1246
I01
sS'andr'
p1247
I01
sS'capit'
p1248
I01
sS'simplist'
p1249
I01
sS'riot'
p1250
I01
sS'montana'
p1251
I01
sS'afford'
p1252
I01
sS'peopl'
p1253
I01
sS'claus'
p1254
I01
sS'enhanc'
p1255
I01
sS'visual'
p1256
I01
sS'drown'
p1257
I01
sS'olivi'
p1258
I01
sS'biographi'
p1259
I01
sS'examin'
p1260
I01
sS'ventur'
p1261
I01
sS'effort'
p1262
I01
sS'piano'
p1263
I01
sS'religi'
p1264
I01
sS'judi'
p1265
I01
sS'graphic'
p1266
I01
sS'car'
p1267
I01
sS'prepar'
p1268
I01
sS'cap'
p1269
I01
sS'judg'
p1270
I01
sS'uniqu'
p1271
I01
sS'cat'
p1272
I01
sS'fli'
p1273
I01
sS'soup'
p1274
I01
sS'vega'
p1275
I01
sS'can'
p1276
I01
sS'sky'
p1277
I01
sS'mill'
p1278
I01
sS'purpos'
p1279
I01
sS'pretens'
p1280
I01
sS'slightest'
p1281
I01
sS'claim'
p1282
I01
sS'collaps'
p1283
I01
sS'complic'
p1284
I01
sS'favourit'
p1285
I01
sS'fabul'
p1286
I01
sS'stream'
p1287
I01
sS'predict'
p1288
I01
sS'reynold'
p1289
I01
sS'agent'
p1290
I01
sS'topic'
p1291
I01
sS'heard'
p1292
I01
sS'critic'
p1293
I01
sS'cube'
p1294
I01
sS'o'
p1295
I01
sS'phrase'
p1296
I01
sS'recycl'
p1297
I01
sS'agenc'
p1298
I01
sS'stole'
p1299
I01
sS'occur'
p1300
I01
sS'craze'
p1301
I01
sS'pink'
p1302
I01
sS'multipl'
p1303
I01
sS'winter'
p1304
I01
sS'sidney'
p1305
I01
sS'robinson'
p1306
I01
sS'foul'
p1307
I01
sS'get'
p1308
I01
sS'write'
p1309
I01
sS'alway'
p1310
I01
sS'sunday'
p1311
I01
sS'clichd'
p1312
I01
sS'anyon'
p1313
I01
sS'mildr'
p1314
I01
sS'pure'
p1315
I01
sS'helen'
p1316
I01
sS'nyc'
p1317
I01
sS'condemn'
p1318
I01
sS'marshal'
p1319
I01
sS'product'
p1320
I01
sS'mar'
p1321
I01
sS'paramount'
p1322
I01
sS'may'
p1323
I01
sS'neat'
p1324
I01
sS'clone'
p1325
I01
sS'spot'
p1326
I01
sS'birthday'
p1327
I01
sS'mad'
p1328
I01
sS'date'
p1329
I01
sS'remak'
p1330
I01
sS'suck'
p1331
I01
sS'secondari'
p1332
I01
sS'eighti'
p1333
I01
sS'grow'
p1334
I01
sS'man'
p1335
I01
sS'drake'
p1336
I01
sS'stress'
p1337
I01
sS'unsettl'
p1338
I01
sS'practic'
p1339
I01
sS'johnson'
p1340
I01
sS'conscious'
p1341
I01
sS'secur'
p1342
I01
sS'favorit'
p1343
I01
sS'offens'
p1344
I01
sS'tale'
p1345
I01
sS'inform'
p1346
I01
sS'switch'
p1347
I01
sS'sh'
p1348
I01
sS'truck'
p1349
I01
sS'chavez'
p1350
I01
sS'unleash'
p1351
I01
sS'offend'
p1352
I01
sS'battl'
p1353
I01
sS'kurt'
p1354
I01
sS'ordinari'
p1355
I01
sS'talk'
p1356
I01
sS'drunken'
p1357
I01
sS'cute'
p1358
I01
sS'bush'
p1359
I01
sS'fairi'
p1360
I01
sS'anticip'
p1361
I01
sS'horrifi'
p1362
I01
sS'gradual'
p1363
I01
sS'approv'
p1364
I01
sS'farrel'
p1365
I01
sS'che'
p1366
I01
sS'kong'
p1367
I01
sS'arm'
p1368
I01
sS'brain'
p1369
I01
sS'lyric'
p1370
I01
sS'divid'
p1371
I01
sS'shake'
p1372
I01
sS'emphasi'
p1373
I01
sS'cold'
p1374
I01
sS'still'
p1375
I01
sS'adopt'
p1376
I01
sS'dynam'
p1377
I01
sS'bacal'
p1378
I01
sS'group'
p1379
I01
sS'thank'
p1380
I01
sS'hors'
p1381
I01
sS'polici'
p1382
I01
sS'passag'
p1383
I01
sS'torn'
p1384
I01
sS'dysfunct'
p1385
I01
sS'maid'
p1386
I01
sS'window'
p1387
I01
sS'suspicion'
p1388
I01
sS'requir'
p1389
I01
sS'farmer'
p1390
I01
sS'mail'
p1391
I01
sS'mediocr'
p1392
I01
sS'main'
p1393
I01
sS'confin'
p1394
I01
sS'ramon'
p1395
I01
sS'clair'
p1396
I01
sS'non'
p1397
I01
sS'evok'
p1398
I01
sS'recal'
p1399
I01
sS'wealthi'
p1400
I01
sS'nod'
p1401
I01
sS'financi'
p1402
I01
sS'killer'
p1403
I01
sS'initi'
p1404
I01
sS'nation'
p1405
I01
sS'underneath'
p1406
I01
sS'interview'
p1407
I01
sS'loneli'
p1408
I01
sS'hamilton'
p1409
I01
sS'aesthet'
p1410
I01
sS'half'
p1411
I01
sS'freez'
p1412
I01
sS'now'
p1413
I01
sS'twilight'
p1414
I01
sS'hall'
p1415
I01
sS'possess'
p1416
I01
sS'wont'
p1417
I01
sS'sympath'
p1418
I01
sS'term'
p1419
I01
sS'name'
p1420
I01
sS'robbin'
p1421
I01
sS'realist'
p1422
I01
sS'servant'
p1423
I01
sS'stir'
p1424
I01
sS'amateurish'
p1425
I01
sS'drop'
p1426
I01
sS'oliv'
p1427
I01
sS'separ'
p1428
I01
sS'magazin'
p1429
I01
sS'jimmi'
p1430
I01
sS'rock'
p1431
I01
sS'polit'
p1432
I01
sS'courag'
p1433
I01
sS'realism'
p1434
I01
sS'em'
p1435
I01
sS'nick'
p1436
I01
sS'en'
p1437
I01
sS'replac'
p1438
I01
sS'individu'
p1439
I01
sS'kane'
p1440
I01
sS'continu'
p1441
I01
sS'borrow'
p1442
I01
sS'atroci'
p1443
I01
sS'ex'
p1444
I01
sS'year'
p1445
I01
sS'et'
p1446
I01
sS'girl'
p1447
I01
sS'dispos'
p1448
I01
sS'er'
p1449
I01
sS'album'
p1450
I01
sS'shown'
p1451
I01
sS'ambit'
p1452
I01
sS'jackson'
p1453
I01
sS'space'
p1454
I01
sS'profit'
p1455
I01
sS'rampag'
p1456
I01
sS'miyazaki'
p1457
I01
sS'twelv'
p1458
I01
sS'pamela'
p1459
I01
sS'dolph'
p1460
I01
sS'dutch'
p1461
I01
sS'uncl'
p1462
I01
sS'formula'
p1463
I01
sS'ironi'
p1464
I01
sS'correct'
p1465
I01
sS'romanc'
p1466
I01
sS'palanc'
p1467
I01
sS'diseas'
p1468
I01
sS'monster'
p1469
I01
sS'glimps'
p1470
I01
sS'domest'
p1471
I01
sS'million'
p1472
I01
sS'seventi'
p1473
I01
sS'hulk'
p1474
I01
sS'sneak'
p1475
I01
sS'cari'
p1476
I01
sS'california'
p1477
I01
sS'rebel'
p1478
I01
sS'carl'
p1479
I01
sS'romant'
p1480
I01
sS'institut'
p1481
I01
sS'stanwyck'
p1482
I01
sS'keith'
p1483
I01
sS'unpredict'
p1484
I01
sS'card'
p1485
I01
sS'care'
p1486
I01
sS'soundtrack'
p1487
I01
sS'couldn'
p1488
I01
sS'question'
p1489
I01
sS'punk'
p1490
I01
sS'refus'
p1491
I01
sS'honest'
p1492
I01
sS'motion'
p1493
I01
sS'thing'
p1494
I01
sS'place'
p1495
I01
sS'vision'
p1496
I01
sS'frustrat'
p1497
I01
sS'profess'
p1498
I01
sS'childhood'
p1499
I01
sS'frequent'
p1500
I01
sS'first'
p1501
I01
sS'origin'
p1502
I01
sS'clumsi'
p1503
I01
sS'suspend'
p1504
I01
sS'improvis'
p1505
I01
sS'carri'
p1506
I01
sS'onc'
p1507
I01
sS'rachel'
p1508
I01
sS'cheesi'
p1509
I01
sS'one'
p1510
I01
sS'suspens'
p1511
I01
sS'long'
p1512
I01
sS'spanish'
p1513
I01
sS'vote'
p1514
I01
sS'branagh'
p1515
I01
sS'ring'
p1516
I01
sS'drove'
p1517
I01
sS'open'
p1518
I01
sS'tomorrow'
p1519
I01
sS'size'
p1520
I01
sS'given'
p1521
I01
sS'ian'
p1522
I01
sS'sheet'
p1523
I01
sS'silent'
p1524
I01
sS'convent'
p1525
I01
sS'imit'
p1526
I01
sS'bloom'
p1527
I01
sS'caught'
p1528
I01
sS'breed'
p1529
I01
sS'franco'
p1530
I01
sS'reli'
p1531
I01
sS'loyalti'
p1532
I01
sS'citi'
p1533
I01
sS'silenc'
p1534
I01
sS'necessarili'
p1535
I01
sS'tragic'
p1536
I01
sS'averag'
p1537
I01
sS'circl'
p1538
I01
sS'white'
p1539
I01
sS'conveni'
p1540
I01
sS'friend'
p1541
I01
sS'subplot'
p1542
I01
sS'slasher'
p1543
I01
sS'knowledg'
p1544
I01
sS'especi'
p1545
I01
sS'compass'
p1546
I01
sS'season'
p1547
I01
sS'copi'
p1548
I01
sS'huh'
p1549
I01
sS'alan'
p1550
I01
sS'templ'
p1551
I01
sS'broadcast'
p1552
I01
sS'antic'
p1553
I01
sS'butt'
p1554
I01
sS'domin'
p1555
I01
sS'stargat'
p1556
I01
sS'boyfriend'
p1557
I01
sS'serv'
p1558
I01
sS'wide'
p1559
I01
sS'nathan'
p1560
I01
sS'instanc'
p1561
I01
sS'passabl'
p1562
I01
sS'rival'
p1563
I01
sS'inferior'
p1564
I01
sS'susan'
p1565
I01
sS'recruit'
p1566
I01
sS'r'
p1567
I01
sS'balanc'
p1568
I01
sS'coat'
p1569
I01
sS'posit'
p1570
I01
sS'russia'
p1571
I01
sS'seri'
p1572
I01
sS'pre'
p1573
I01
sS'mountain'
p1574
I01
sS'delic'
p1575
I01
sS'conspiraci'
p1576
I01
sS'san'
p1577
I01
sS'sam'
p1578
I01
sS'craig'
p1579
I01
sS'ann'
p1580
I01
sS'premier'
p1581
I01
sS'ani'
p1582
I01
sS'slap'
p1583
I01
sS'sad'
p1584
I01
sS'dash'
p1585
I01
sS'say'
p1586
I01
sS'slam'
p1587
I01
sS'comedian'
p1588
I01
sS'rent'
p1589
I01
sS'deliv'
p1590
I01
sS'portrait'
p1591
I01
sS'allen'
p1592
I01
sS'turner'
p1593
I01
sS'dragon'
p1594
I01
sS'saw'
p1595
I01
sS'kevin'
p1596
I01
sS'sat'
p1597
I01
sS'coach'
p1598
I01
sS'mislead'
p1599
I01
sS'engin'
p1600
I01
sS'techniqu'
p1601
I01
sS'advic'
p1602
I01
sS'greek'
p1603
I01
sS'veteran'
p1604
I01
sS'note'
p1605
I01
sS'altogeth'
p1606
I01
sS'ideal'
p1607
I01
sS'danni'
p1608
I01
sS'lion'
p1609
I01
sS'take'
p1610
I01
sS'advis'
p1611
I01
sS'interior'
p1612
I01
sS'destroy'
p1613
I01
sS'concern'
p1614
I01
sS'blunt'
p1615
I01
sS'noth'
p1616
I01
sS'channel'
p1617
I01
sS'wrench'
p1618
I01
sS'surf'
p1619
I01
sS'begin'
p1620
I01
sS'sure'
p1621
I01
sS'pain'
p1622
I01
sS'norman'
p1623
I01
sS'trace'
p1624
I01
sS'normal'
p1625
I01
sS'track'
p1626
I01
sS'price'
p1627
I01
sS'knew'
p1628
I01
sS'entranc'
p1629
I01
sS'paid'
p1630
I01
sS'plagu'
p1631
I01
sS'assault'
p1632
I01
sS'wire'
p1633
I01
sS'abus'
p1634
I01
sS'connor'
p1635
I01
sS'pair'
p1636
I01
sS'america'
p1637
I01
sS'icon'
p1638
I01
sS'perceiv'
p1639
I01
sS'pathet'
p1640
I01
sS'rescu'
p1641
I01
sS'later'
p1642
I01
sS'drive'
p1643
I01
sS'mrs'
p1644
I01
sS'julian'
p1645
I01
sS'meanwhil'
p1646
I01
sS'backdrop'
p1647
I01
sS'harvey'
p1648
I01
sS'reed'
p1649
I01
sS'bumbl'
p1650
I01
sS'abraham'
p1651
I01
sS'hungri'
p1652
I01
sS'shop'
p1653
I01
sS'shot'
p1654
I01
sS'show'
p1655
I01
sS'cheat'
p1656
I01
sS'feminist'
p1657
I01
sS'cheap'
p1658
I01
sS'merit'
p1659
I01
sS'bright'
p1660
I01
sS'shoe'
p1661
I01
sS'hack'
p1662
I01
sS'corner'
p1663
I01
sS'tend'
p1664
I01
sS'insur'
p1665
I01
sS'contemporari'
p1666
I01
sS'ground'
p1667
I01
sS'enthusiast'
p1668
I01
sS'onli'
p1669
I01
sS'slow'
p1670
I01
sS'travesti'
p1671
I01
sS'favor'
p1672
I01
sS'dick'
p1673
I01
sS'activ'
p1674
I01
sS'written'
p1675
I01
sS'crime'
p1676
I01
sS'wood'
p1677
I01
sS'black'
p1678
I01
sS'thompson'
p1679
I01
sS'enthusiasm'
p1680
I01
sS'akshay'
p1681
I01
sS'psychiatrist'
p1682
I01
sS'emili'
p1683
I01
sS'cannon'
p1684
I01
sS'mormon'
p1685
I01
sS'jazz'
p1686
I01
sS'cia'
p1687
I01
sS'mission'
p1688
I01
sS'crude'
p1689
I01
sS'leon'
p1690
I01
sS'brit'
p1691
I01
sS'brosnan'
p1692
I01
sS'gem'
p1693
I01
sS'truli'
p1694
I01
sS'prime'
p1695
I01
sS'reveal'
p1696
I01
sS'skull'
p1697
I01
sS'artist'
p1698
I01
sS'seldom'
p1699
I01
sS'dramat'
p1700
I01
sS'alicia'
p1701
I01
sS'stupid'
p1702
I01
sS'roger'
p1703
I01
sS'nicol'
p1704
I01
sS'amanda'
p1705
I01
sS'husband'
p1706
I01
sS'summari'
p1707
I01
sS'trilog'
p1708
I01
sS'ned'
p1709
I01
sS'concert'
p1710
I01
sS'burst'
p1711
I01
sS'conscienc'
p1712
I01
sS'menac'
p1713
I01
sS'seat'
p1714
I01
sS'solo'
p1715
I01
sS'gangster'
p1716
I01
sS'asleep'
p1717
I01
sS'sean'
p1718
I01
sS'broadway'
p1719
I01
sS'stanley'
p1720
I01
sS'sport'
p1721
I01
sS'wonder'
p1722
I01
sS'intim'
p1723
I01
sS'detect'
p1724
I01
sS'televis'
p1725
I01
sS'overdon'
p1726
I01
sS'innov'
p1727
I01
sS'vari'
p1728
I01
sS'review'
p1729
I01
sS'label'
p1730
I01
sS'enough'
p1731
I01
sS'wayn'
p1732
I01
sS'import'
p1733
I01
sS'across'
p1734
I01
sS'parent'
p1735
I01
sS'screen'
p1736
I01
sS'preach'
p1737
I01
sS'jr'
p1738
I01
sS'blame'
p1739
I01
sS'spare'
p1740
I01
sS'spark'
p1741
I01
sS'come'
p1742
I01
sS'abomin'
p1743
I01
sS'reaction'
p1744
I01
sS'stinker'
p1745
I01
sS'mob'
p1746
I01
sS'comed'
p1747
I01
sS'region'
p1748
I01
sS'cagney'
p1749
I01
sS'quiet'
p1750
I01
sS'contract'
p1751
I01
sS'temper'
p1752
I01
sS's'
p1753
I01
sS'inconsist'
p1754
I01
sS'item'
p1755
I01
sS'mani'
p1756
I01
sS'prequel'
p1757
I01
sS'mann'
p1758
I01
sS'among'
p1759
I01
sS'key'
p1760
I01
sS'cancer'
p1761
I01
sS'color'
p1762
I01
sS'pot'
p1763
I01
sS'inspir'
p1764
I01
sS'period'
p1765
I01
sS'pop'
p1766
I01
sS'duti'
p1767
I01
sS'exploit'
p1768
I01
sS'jeremi'
p1769
I01
sS'anti'
p1770
I01
sS'cancel'
p1771
I01
sS'freak'
p1772
I01
sS'nicola'
p1773
I01
sS'coloni'
p1774
I01
sS'undoubt'
p1775
I01
sS'boat'
p1776
I01
sS'damag'
p1777
I01
sS'turkey'
p1778
I01
sS'inan'
p1779
I01
sS'ultim'
p1780
I01
sS'coupl'
p1781
I01
sS'howard'
p1782
I01
sS'stretch'
p1783
I01
sS'west'
p1784
I01
sS'suicid'
p1785
I01
sS'mark'
p1786
I01
sS'breath'
p1787
I01
sS'jon'
p1788
I01
sS'toss'
p1789
I01
sS'carel'
p1790
I01
sS'barri'
p1791
I01
sS'voight'
p1792
I01
sS'crawford'
p1793
I01
sS'cuba'
p1794
I01
sS'gray'
p1795
I01
sS'emphas'
p1796
I01
sS'thousand'
p1797
I01
sS'resolut'
p1798
I01
sS'rubi'
p1799
I01
sS'andrew'
p1800
I01
sS'chao'
p1801
I01
sS'tiger'
p1802
I01
sS'wake'
p1803
I01
sS'robberi'
p1804
I01
sS'penn'
p1805
I01
sS'drum'
p1806
I01
sS'lectur'
p1807
I01
sS'former'
p1808
I01
sS'robber'
p1809
I01
sS'pilot'
p1810
I01
sS'sound'
p1811
I01
sS'antonioni'
p1812
I01
sS'soccer'
p1813
I01
sS'stereotyp'
p1814
I01
sS'cash'
p1815
I01
sS'arnold'
p1816
I01
sS'trick'
p1817
I01
sS'cast'
p1818
I01
sS'cure'
p1819
I01
sS'outcom'
p1820
I01
sS'empir'
p1821
I01
sS'pro'
p1822
I01
sS'advantag'
p1823
I01
sS'topless'
p1824
I01
sS'pokemon'
p1825
I01
sS'henc'
p1826
I01
sS'convinc'
p1827
I01
sS'worri'
p1828
I01
sS'destin'
p1829
I01
sS'strain'
p1830
I01
sS'sudden'
p1831
I01
sS'maci'
p1832
I01
sS'satan'
p1833
I01
sS'outrag'
p1834
I01
sS'nearbi'
p1835
I01
sS'pursu'
p1836
I01
sS'fame'
p1837
I01
sS'par'
p1838
I01
sS'psychopath'
p1839
I01
sS'develop'
p1840
I01
sS'harsh'
p1841
I01
sS'etc'
p1842
I01
sS'pay'
p1843
I01
sS'medic'
p1844
I01
sS'bowl'
p1845
I01
sS'audienc'
p1846
I01
sS'check'
p1847
I01
sS'food'
p1848
I01
sS'poetic'
p1849
I01
sS'heartbreak'
p1850
I01
sS'speech'
p1851
I01
sS'sucker'
p1852
I01
sS'damon'
p1853
I01
sS'document'
p1854
I01
sS'pal'
p1855
I01
sS'pan'
p1856
I01
sS'status'
p1857
I01
sS'exhaust'
p1858
I01
sS'jeffrey'
p1859
I01
sS'finish'
p1860
I01
sS'closest'
p1861
I01
sS'applaud'
p1862
I01
sS'assist'
p1863
I01
sS'driver'
p1864
I01
sS'someon'
p1865
I01
sS'companion'
p1866
I01
sS'director'
p1867
I01
sS'capabl'
p1868
I01
sS'drivel'
p1869
I01
sS'disguis'
p1870
I01
sS'unsatisfi'
p1871
I01
sS'improv'
p1872
I01
sS'defi'
p1873
I01
sS'cartoon'
p1874
I01
sS'superbl'
p1875
I01
sS'kudo'
p1876
I01
sS'appropri'
p1877
I01
sS'theater'
p1878
I01
sS'pacino'
p1879
I01
sS'denni'
p1880
I01
sS'justifi'
p1881
I01
sS'media'
p1882
I01
sS'without'
p1883
I01
sS'lemmon'
p1884
I01
sS'relief'
p1885
I01
sS'vomit'
p1886
I01
sS'model'
p1887
I01
sS'reward'
p1888
I01
sS'dimension'
p1889
I01
sS'satir'
p1890
I01
sS'summer'
p1891
I01
sS'violenc'
p1892
I01
sS'execut'
p1893
I01
sS'money'
p1894
I01
sS'rest'
p1895
I01
sS'rita'
p1896
I01
sS'violent'
p1897
I01
sS'choreographi'
p1898
I01
sS'kill'
p1899
I01
sS'aspect'
p1900
I01
sS'ninja'
p1901
I01
sS'touch'
p1902
I01
sS'polish'
p1903
I01
sS'laughabl'
p1904
I01
sS'outlin'
p1905
I01
sS'speed'
p1906
I01
sS'cardboard'
p1907
I01
sS'halfway'
p1908
I01
sS'concentr'
p1909
I01
sS'indulg'
p1910
I01
sS'death'
p1911
I01
sS'europ'
p1912
I01
sS'hint'
p1913
I01
sS'rose'
p1914
I01
sS'senseless'
p1915
I01
sS'except'
p1916
I01
sS'littl'
p1917
I01
sS'cassidi'
p1918
I01
sS'instrument'
p1919
I01
sS'pile'
p1920
I01
sS'treatment'
p1921
I01
sS'exercis'
p1922
I01
sS'notori'
p1923
I01
sS'basi'
p1924
I01
sS'vulner'
p1925
I01
sS'bread'
p1926
I01
sS'ross'
p1927
I01
sS'earli'
p1928
I01
sS'boast'
p1929
I01
sS'jake'
p1930
I01
sS'around'
p1931
I01
sS'spectacular'
p1932
I01
sS'read'
p1933
I01
sS'ladi'
p1934
I01
sS'virginia'
p1935
I01
sS'nobl'
p1936
I01
sS'horrid'
p1937
I01
sS'dark'
p1938
I01
sS'earnest'
p1939
I01
sS'chainsaw'
p1940
I01
sS'goofi'
p1941
I01
sS'spacey'
p1942
I01
sS'insist'
p1943
I01
sS'mom'
p1944
I01
sS'loos'
p1945
I01
sS'world'
p1946
I01
sS'cd'
p1947
I01
sS'grim'
p1948
I01
sS'dare'
p1949
I01
sS'divorc'
p1950
I01
sS'exagger'
p1951
I01
sS'macarthur'
p1952
I01
sS'stranger'
p1953
I01
sS'patrick'
p1954
I01
sS'twin'
p1955
I01
sS'shelf'
p1956
I01
sS'engross'
p1957
I01
sS'benefit'
p1958
I01
sS't'
p1959
I01
sS'glamor'
p1960
I01
sS'kennedi'
p1961
I01
sS'tower'
p1962
I01
sS'manag'
p1963
I01
sS'fulfil'
p1964
I01
sS'cabl'
p1965
I01
sS'doll'
p1966
I01
sS'titan'
p1967
I01
sS'lena'
p1968
I01
sS'chuck'
p1969
I01
sS'sentinel'
p1970
I01
sS'adequ'
p1971
I01
sS'refresh'
p1972
I01
sS'racial'
p1973
I01
sS'joan'
p1974
I01
sS'fanat'
p1975
I01
sS'bless'
p1976
I01
sS'slice'
p1977
I01
sS'mood'
p1978
I01
sS'chronicl'
p1979
I01
sS'confirm'
p1980
I01
sS'tube'
p1981
I01
sS'definit'
p1982
I01
sS'slick'
p1983
I01
sS'legal'
p1984
I01
sS'moon'
p1985
I01
sS'throat'
p1986
I01
sS'evolv'
p1987
I01
sS'exit'
p1988
I01
sS'inject'
p1989
I01
sS'econom'
p1990
I01
sS'unbeliev'
p1991
I01
sS'gruesom'
p1992
I01
sS'notabl'
p1993
I01
sS'knife'
p1994
I01
sS'refer'
p1995
I01
sS'watchabl'
p1996
I01
sS'policeman'
p1997
I01
sS'power'
p1998
I01
sS'poem'
p1999
I01
sS'sixti'
p2000
I01
sS'garbag'
p2001
I01
sS'ration'
p2002
I01
sS'slaughter'
p2003
I01
sS'mute'
p2004
I01
sS'broken'
p2005
I01
sS'wive'
p2006
I01
sS'fulli'
p2007
I01
sS'powel'
p2008
I01
sS'throw'
p2009
I01
sS'plastic'
p2010
I01
sS'comparison'
p2011
I01
sS'stone'
p2012
I01
sS'ok'
p2013
I01
sS'oh'
p2014
I01
sS'island'
p2015
I01
sS'gregori'
p2016
I01
sS'marc'
p2017
I01
sS'drag'
p2018
I01
sS'luci'
p2019
I01
sS'chop'
p2020
I01
sS'degre'
p2021
I01
sS'journey'
p2022
I01
sS'wolf'
p2023
I01
sS'stand'
p2024
I01
sS'neighbor'
p2025
I01
sS'act'
p2026
I01
sS'palma'
p2027
I01
sS'industri'
p2028
I01
sS'mean'
p2029
I01
sS'road'
p2030
I01
sS'routin'
p2031
I01
sS'gari'
p2032
I01
sS'romero'
p2033
I01
sS'surviv'
p2034
I01
sS'nowher'
p2035
I01
sS'darren'
p2036
I01
sS'homeless'
p2037
I01
sS'strip'
p2038
I01
sS'burton'
p2039
I01
sS'england'
p2040
I01
sS'nurs'
p2041
I01
sS'walken'
p2042
I01
sS'charli'
p2043
I01
sS'stare'
p2044
I01
sS'willi'
p2045
I01
sS'area'
p2046
I01
sS'aren'
p2047
I01
sS'racism'
p2048
I01
sS'lol'
p2049
I01
sS'start'
p2050
I01
sS'fascin'
p2051
I01
sS'mindless'
p2052
I01
sS'racist'
p2053
I01
sS'low'
p2054
I01
sS'lot'
p2055
I01
sS'lou'
p2056
I01
sS'premis'
p2057
I01
sS'valley'
p2058
I01
sS'strict'
p2059
I01
sS'lang'
p2060
I01
sS'bottl'
p2061
I01
sS'monoton'
p2062
I01
sS'conclud'
p2063
I01
sS'regard'
p2064
I01
sS'younger'
p2065
I01
sS'amongst'
p2066
I01
sS'seagal'
p2067
I01
sS'soprano'
p2068
I01
sS'baffl'
p2069
I01
sS'gore'
p2070
I01
sS'gori'
p2071
I01
sS'conclus'
p2072
I01
sS'longer'
p2073
I01
sS'freddi'
p2074
I01
sS'pull'
p2075
I01
sS'rush'
p2076
I01
sS'stoog'
p2077
I01
sS'dirti'
p2078
I01
sS'possibl'
p2079
I01
sS'sleazi'
p2080
I01
sS'tripe'
p2081
I01
sS'nostalg'
p2082
I01
sS'vhs'
p2083
I01
sS'polanski'
p2084
I01
sS'unusu'
p2085
I01
sS'grasp'
p2086
I01
sS'muddl'
p2087
I01
sS'brando'
p2088
I01
sS'age'
p2089
I01
sS'expect'
p2090
I01
sS'chaplin'
p2091
I01
sS'gone'
p2092
I01
sS'taylor'
p2093
I01
sS'ad'
p2094
I01
sS'fright'
p2095
I01
sS'cinema'
p2096
I01
sS'certain'
p2097
I01
sS'pole'
p2098
I01
sS'felix'
p2099
I01
sS'censor'
p2100
I01
sS'al'
p2101
I01
sS'deep'
p2102
I01
sS'general'
p2103
I01
sS'britain'
p2104
I01
sS'aw'
p2105
I01
sS'generat'
p2106
I01
sS'girlfriend'
p2107
I01
sS'bob'
p2108
I01
sS'deed'
p2109
I01
sS'russel'
p2110
I01
sS'nerd'
p2111
I01
sS'film'
p2112
I01
sS'fill'
p2113
I01
sS'tedious'
p2114
I01
sS'cinematographi'
p2115
I01
sS'hart'
p2116
I01
sS'maggi'
p2117
I01
sS'idiot'
p2118
I01
sS'tasteless'
p2119
I01
sS'compel'
p2120
I01
sS'green'
p2121
I01
sS'event'
p2122
I01
sS'rubber'
p2123
I01
sS'field'
p2124
I01
sS'valid'
p2125
I01
sS'compet'
p2126
I01
sS'biko'
p2127
I01
sS'immens'
p2128
I01
sS'trash'
p2129
I01
sS'abysm'
p2130
I01
sS'poor'
p2131
I01
sS'championship'
p2132
I01
sS'genuin'
p2133
I01
sS'hey'
p2134
I01
sS'regardless'
p2135
I01
sS'terri'
p2136
I01
sS'sequenc'
p2137
I01
sS'symbol'
p2138
I01
sS'teeth'
p2139
I01
sS'drift'
p2140
I01
sS'lacklust'
p2141
I01
sS'briefli'
p2142
I01
sS'flower'
p2143
I01
sS'peak'
p2144
I01
sS'cur'
p2145
I01
sS'chris'
p2146
I01
sS'peac'
p2147
I01
sS'inexplic'
p2148
I01
sS'reduc'
p2149
I01
sS'philosoph'
p2150
I01
sS'meander'
p2151
I01
sS'studio'
p2152
I01
sS'wife'
p2153
I01
sS'directori'
p2154
I01
sS'invest'
p2155
I01
sS'mask'
p2156
I01
sS'inevit'
p2157
I01
sS'u'
p2158
I01
sS'adam'
p2159
I01
sS'castl'
p2160
I01
sS'alright'
p2161
I01
sS'escap'
p2162
I01
sS'degrad'
p2163
I01
sS'roy'
p2164
I01
sS'childish'
p2165
I01
sS'represent'
p2166
I01
sS'talki'
p2167
I01
sS'sci'
p2168
I01
sS'consider'
p2169
I01
sS'lumet'
p2170
I01
sS'illustr'
p2171
I01
sS'forbidden'
p2172
I01
sS'breathtak'
p2173
I01
sS'dollar'
p2174
I01
sS'month'
p2175
I01
sS'befriend'
p2176
I01
sS'honesti'
p2177
I01
sS'abil'
p2178
I01
sS'cameron'
p2179
I01
sS'follow'
p2180
I01
sS'princ'
p2181
I01
sS'wendi'
p2182
I01
sS'children'
p2183
I01
sS'unbear'
p2184
I01
sS'rd'
p2185
I01
sS'ron'
p2186
I01
sS'tv'
p2187
I01
sS'laid'
p2188
I01
sS'spirit'
p2189
I01
sS'tail'
p2190
I01
sS'program'
p2191
I01
sS'humili'
p2192
I01
sS'shameless'
p2193
I01
sS'th'
p2194
I01
sS'sustain'
p2195
I01
sS'countless'
p2196
I01
sS'cgi'
p2197
I01
sS'introduc'
p2198
I01
sS'case'
p2199
I01
sS'godfath'
p2200
I01
sS'woman'
p2201
I01
sS'straightforward'
p2202
I01
sS'song'
p2203
I01
sS'far'
p2204
I01
sS'horror'
p2205
I01
sS'fat'
p2206
I01
sS'skit'
p2207
I01
sS'util'
p2208
I01
sS'candid'
p2209
I01
sS'fan'
p2210
I01
sS'fall'
p2211
I01
sS'veri'
p2212
I01
sS'han'
p2213
I01
sS'ticket'
p2214
I01
sS'strang'
p2215
I01
sS'fourth'
p2216
I01
sS'steve'
p2217
I01
sS'heaven'
p2218
I01
sS'harri'
p2219
I01
sS'louis'
p2220
I01
sS'list'
p2221
I01
sS'signific'
p2222
I01
sS'dinosaur'
p2223
I01
sS'sand'
p2224
I01
sS'mile'
p2225
I01
sS'small'
p2226
I01
sS'lisa'
p2227
I01
sS'hawk'
p2228
I01
sS'flick'
p2229
I01
sS'enterpris'
p2230
I01
sS'neighborhood'
p2231
I01
sS'ten'
p2232
I01
sS'extraordinari'
p2233
I01
sS'tea'
p2234
I01
sS'ritter'
p2235
I01
sS'qualifi'
p2236
I01
sS'past'
p2237
I01
sS'aristocrat'
p2238
I01
sS'narrat'
p2239
I01
sS'pressur'
p2240
I01
sS'design'
p2241
I01
sS'lawyer'
p2242
I01
sS'pass'
p2243
I01
sS'flashback'
p2244
I01
sS'excit'
p2245
I01
sS'sue'
p2246
I01
sS'abc'
p2247
I01
sS'stood'
p2248
I01
sS'sub'
p2249
I01
sS'richard'
p2250
I01
sS'clock'
p2251
I01
sS'sun'
p2252
I01
sS'section'
p2253
I01
sS'dirt'
p2254
I01
sS'abl'
p2255
I01
sS'brief'
p2256
I01
sS'milk'
p2257
I01
sS'crush'
p2258
I01
sS'delet'
p2259
I01
sS'version'
p2260
I01
sS'deepli'
p2261
I01
sS'public'
p2262
I01
sS'contrast'
p2263
I01
sS'essenc'
p2264
I01
sS'mystic'
p2265
I01
sS'hasn'
p2266
I01
sS'full'
p2267
I01
sS'themselv'
p2268
I01
sS'rehears'
p2269
I01
sS'christi'
p2270
I01
sS'rochest'
p2271
I01
sS'theatric'
p2272
I01
sS'tragedi'
p2273
I01
sS'suspici'
p2274
I01
sS'behaviour'
p2275
I01
sS'ranger'
p2276
I01
sS'shouldn'
p2277
I01
sS'middl'
p2278
I01
sS'immort'
p2279
I01
sS'excess'
p2280
I01
sS'greed'
p2281
I01
sS'method'
p2282
I01
sS'iraq'
p2283
I01
sS'legend'
p2284
I01
sS'valu'
p2285
I01
sS'pleasant'
p2286
I01
sS'search'
p2287
I01
sS'meryl'
p2288
I01
sS'ahead'
p2289
I01
sS'miseri'
p2290
I01
sS'jim'
p2291
I01
sS'whine'
p2292
I01
sS'brutal'
p2293
I01
sS'observ'
p2294
I01
sS'prior'
p2295
I01
sS'amount'
p2296
I01
sS'heroin'
p2297
I01
sS'pick'
p2298
I01
sS'action'
p2299
I01
sS'corps'
p2300
I01
sS'creepi'
p2301
I01
sS'bulli'
p2302
I01
sS'via'
p2303
I01
sS'depart'
p2304
I01
sS'declin'
p2305
I01
sS'lawrenc'
p2306
I01
sS'transit'
p2307
I01
sS'africa'
p2308
I01
sS'sadist'
p2309
I01
sS'w'
p2310
I01
sS'put'
p2311
I01
sS'voyag'
p2312
I01
sS'inappropri'
p2313
I01
sS'famili'
p2314
I01
sS'demis'
p2315
I01
sS'gratuit'
p2316
I01
sS'establish'
p2317
I01
sS'memor'
p2318
I01
sS'select'
p2319
I01
sS'engag'
p2320
I01
sS'aggress'
p2321
I01
sS'eye'
p2322
I01
sS'proceed'
p2323
I01
sS'harmless'
p2324
I01
sS'distinct'
p2325
I01
sS'liber'
p2326
I01
sS'faint'
p2327
I01
sS'regist'
p2328
I01
sS'two'
p2329
I01
sS'bizarr'
p2330
I01
sS'pearl'
p2331
I01
sS'anger'
p2332
I01
sS'eyr'
p2333
I01
sS'morn'
p2334
I01
sS'bash'
p2335
I01
sS'gorgeous'
p2336
I01
sS'taken'
p2337
I01
sS'chicken'
p2338
I01
sS'kick'
p2339
I01
sS'minor'
p2340
I01
sS'teen'
p2341
I01
sS'flat'
p2342
I01
sS'flaw'
p2343
I01
sS'diamond'
p2344
I01
sS'desir'
p2345
I01
sS'lush'
p2346
I01
sS'hundr'
p2347
I01
sS'leonard'
p2348
I01
sS'chuckl'
p2349
I01
sS'stick'
p2350
I01
sS'broke'
p2351
I01
sS'particular'
p2352
I01
sS'magnific'
p2353
I01
sS'compani'
p2354
I01
sS'doom'
p2355
I01
sS'glad'
p2356
I01
sS'town'
p2357
I01
sS'dictat'
p2358
I01
sS'none'
p2359
I01
sS'hour'
p2360
I01
sS'hous'
p2361
I01
sS'phillip'
p2362
I01
sS'der'
p2363
I01
sS'daisi'
p2364
I01
sS'histori'
p2365
I01
sS'remain'
p2366
I01
sS'bias'
p2367
I01
sS'nine'
p2368
I01
sS'morgan'
p2369
I01
sS'learn'
p2370
I01
sS'abandon'
p2371
I01
sS'motiv'
p2372
I01
sS'male'
p2373
I01
sS'dee'
p2374
I01
sS'explod'
p2375
I01
sS'orlean'
p2376
I01
sS'shark'
p2377
I01
sS'prompt'
p2378
I01
sS'challeng'
p2379
I01
sS'share'
p2380
I01
sS'accept'
p2381
I01
sS'minimum'
p2382
I01
sS'explor'
p2383
I01
sS'explos'
p2384
I01
sS'guitar'
p2385
I01
sS'sharp'
p2386
I01
sS'dress'
p2387
I01
sS'victori'
p2388
I01
sS'garden'
p2389
I01
sS'huge'
p2390
I01
sS'cours'
p2391
I01
sS'court'
p2392
I01
sS'goal'
p2393
I01
sS'awkward'
p2394
I01
sS'loui'
p2395
I01
sS'rather'
p2396
I01
sS'anoth'
p2397
I01
sS'comfort'
p2398
I01
sS'hugh'
p2399
I01
sS'perhap'
p2400
I01
sS'everyday'
p2401
I01
sS'wax'
p2402
I01
sS'ish'
p2403
I01
sS'lift'
p2404
I01
sS'reject'
p2405
I01
sS'reviv'
p2406
I01
sS'simpl'
p2407
I01
sS'heel'
p2408
I01
sS'hopeless'
p2409
I01
sS'plant'
p2410
I01
sS'okay'
p2411
I01
sS'fu'
p2412
I01
sS'rude'
p2413
I01
sS'fx'
p2414
I01
sS'internet'
p2415
I01
sS'nicholson'
p2416
I01
sS'reflect'
p2417
I01
sS'plane'
p2418
I01
sS'embrac'
p2419
I01
sS'blood'
p2420
I01
sS'numb'
p2421
I01
sS'seduc'
p2422
I01
sS'fi'
p2423
I01
sS'associ'
p2424
I01
sS'bleak'
p2425
I01
sS'circumst'
p2426
I01
sS'short'
p2427
I01
sS'happi'
p2428
I01
sS'confus'
p2429
I01
sS'author'
p2430
I01
sS'ambigu'
p2431
I01
sS'caus'
p2432
I01
sS'imageri'
p2433
I01
sS'ego'
p2434
I01
sS'dread'
p2435
I01
sS'shade'
p2436
I01
sS'cigarett'
p2437
I01
sS'dream'
p2438
I01
sS'lampoon'
p2439
I01
sS'astair'
p2440
I01
sS'elvi'
p2441
I01
sS'mexican'
p2442
I01
sS'help'
p2443
I01
sS'leigh'
p2444
I01
sS'fantasi'
p2445
I01
sS'soon'
p2446
I01
sS'tempt'
p2447
I01
sS'trade'
p2448
I01
sS'held'
p2449
I01
sS'logan'
p2450
I01
sS'paper'
p2451
I01
sS'scott'
p2452
I01
sS'erot'
p2453
I01
sS'hell'
p2454
I01
sS'suffer'
p2455
I01
sS'style'
p2456
I01
sS'matthew'
p2457
I01
sS'pray'
p2458
I01
sS'wilder'
p2459
I01
sS'alli'
p2460
I01
sS'wipe'
p2461
I01
sS'late'
p2462
I01
sS'resort'
p2463
I01
sS'astonish'
p2464
I01
sS'stephen'
p2465
I01
sS'pad'
p2466
I01
sS'delici'
p2467
I01
sS'sloppi'
p2468
I01
sS'might'
p2469
I01
sS'alter'
p2470
I01
sS'fool'
p2471
I01
sS'wouldn'
p2472
I01
sS'ant'
p2473
I01
sS'good'
p2474
I01
sS'return'
p2475
I01
sS'ya'
p2476
I01
sS'sentenc'
p2477
I01
sS'gadget'
p2478
I01
sS'hunter'
p2479
I01
sS'mesmer'
p2480
I01
sS'synopsi'
p2481
I01
sS'charismat'
p2482
I01
sS'somebodi'
p2483
I01
sS'foot'
p2484
I01
sS'disgrac'
p2485
I01
sS'adventur'
p2486
I01
sS'bollywood'
p2487
I01
sS'complain'
p2488
I01
sS'bigger'
p2489
I01
sS'undeni'
p2490
I01
sS'eventu'
p2491
I01
sS'holiday'
p2492
I01
sS'pregnant'
p2493
I01
sS'wallac'
p2494
I01
sS'stiff'
p2495
I01
sS'authent'
p2496
I01
sS'mysteri'
p2497
I01
sS'easili'
p2498
I01
sS'achiev'
p2499
I01
sS'naughti'
p2500
I01
sS'gender'
p2501
I01
sS'found'
p2502
I01
sS'friendship'
p2503
I01
sS'adolesc'
p2504
I01
sS'trailer'
p2505
I01
sS'pretenti'
p2506
I01
sS'alec'
p2507
I01
sS'week'
p2508
I01
sS'harm'
p2509
I01
sS'dig'
p2510
I01
sS'neil'
p2511
I01
sS'mental'
p2512
I01
sS'weight'
p2513
I01
sS'needless'
p2514
I01
sS'stiller'
p2515
I01
sS'fish'
p2516
I01
sS'hard'
p2517
I01
sS'idea'
p2518
I01
sS'terrifi'
p2519
I01
sS'realli'
p2520
I01
sS'heavi'
p2521
I01
sS'persona'
p2522
I01
sS'connect'
p2523
I01
sS'fist'
p2524
I01
sS'todd'
p2525
I01
sS'energi'
p2526
I01
sS'beyond'
p2527
I01
sS'hartley'
p2528
I01
sS'orient'
p2529
I01
sS'wacki'
p2530
I01
sS'massiv'
p2531
I01
sS'safeti'
p2532
I01
sS'alcohol'
p2533
I01
sS'shortcom'
p2534
I01
sS'sutherland'
p2535
I01
sS'robert'
p2536
I01
sS'publish'
p2537
I01
sS'research'
p2538
I01
sS'bubbl'
p2539
I01
sS'perri'
p2540
I01
sS'health'
p2541
I01
sS'hill'
p2542
I01
sS'print'
p2543
I01
sS'ass'
p2544
I01
sS'difficulti'
p2545
I01
sS'pun'
p2546
I01
sS'belief'
p2547
I01
sS'rambo'
p2548
I01
sS'advanc'
p2549
I01
sS'friday'
p2550
I01
sS'differ'
p2551
I01
sS'rocki'
p2552
I01
sS'lifestyl'
p2553
I01
sS'cooki'
p2554
I01
sS'reason'
p2555
I01
sS'base'
p2556
I01
sS'marion'
p2557
I01
sS'believ'
p2558
I01
sS'dire'
p2559
I01
sS'dud'
p2560
I01
sS'ask'
p2561
I01
sS'teach'
p2562
I01
sS'heroic'
p2563
I01
sS'jew'
p2564
I01
sS'thrown'
p2565
I01
sS'driven'
p2566
I01
sS'thread'
p2567
I01
sS'devoid'
p2568
I01
sS'sitcom'
p2569
I01
sS'struggl'
p2570
I01
sS'revolutionari'
p2571
I01
sS'sicken'
p2572
I01
sS'american'
p2573
I01
sS'campbel'
p2574
I01
sS'kung'
p2575
I01
sS'threat'
p2576
I01
sS'testament'
p2577
I01
sS'lifetim'
p2578
I01
sS'fallen'
p2579
I01
sS'assign'
p2580
I01
sS'feed'
p2581
I01
sS'sympathi'
p2582
I01
sS'major'
p2583
I01
sS'dont'
p2584
I01
sS'prevent'
p2585
I01
sS'feel'
p2586
I01
sS'exchang'
p2587
I01
sS'number'
p2588
I01
sS'feet'
p2589
I01
sS'elder'
p2590
I01
sS'sailor'
p2591
I01
sS'done'
p2592
I01
sS'construct'
p2593
I01
sS'blank'
p2594
I01
sS'bland'
p2595
I01
sS'horribl'
p2596
I01
sS'miss'
p2597
I01
sS'excruci'
p2598
I01
sS'fanci'
p2599
I01
sS'simultan'
p2600
I01
sS'thunderbird'
p2601
I01
sS'guess'
p2602
I01
sS'restor'
p2603
I01
sS'fuller'
p2604
I01
sS'guest'
p2605
I01
sS'jet'
p2606
I01
sS'script'
p2607
I01
sS'interact'
p2608
I01
sS'least'
p2609
I01
sS'paint'
p2610
I01
sS'stori'
p2611
I01
sS'station'
p2612
I01
sS'storm'
p2613
I01
sS'crow'
p2614
I01
sS'illeg'
p2615
I01
sS'twenti'
p2616
I01
sS'scheme'
p2617
I01
sS'southern'
p2618
I01
sS'store'
p2619
I01
sS'alleg'
p2620
I01
sS'elvira'
p2621
I01
sS'option'
p2622
I01
sS'relationship'
p2623
I01
sS'behind'
p2624
I01
sS'hotel'
p2625
I01
sS'park'
p2626
I01
sS'pari'
p2627
I01
sS'employ'
p2628
I01
sS'dentist'
p2629
I01
sS'part'
p2630
I01
sS'boredom'
p2631
I01
sS'grace'
p2632
I01
sS'fred'
p2633
I01
sS'king'
p2634
I01
sS'kind'
p2635
I01
sS'grew'
p2636
I01
sS'contrari'
p2637
I01
sS'whenev'
p2638
I01
sS'remot'
p2639
I01
sS'gotten'
p2640
I01
sS'remov'
p2641
I01
sS'grey'
p2642
I01
sS'vocal'
p2643
I01
sS'youth'
p2644
I01
sS'bride'
p2645
I01
sS'asham'
p2646
I01
sS'stalk'
p2647
I01
sS'hyde'
p2648
I01
sS'stale'
p2649
I01
sS'toward'
p2650
I01
sS'danc'
p2651
I01
sS'weapon'
p2652
I01
sS'dana'
p2653
I01
sS'mickey'
p2654
I01
sS'comput'
p2655
I01
sS'atmospher'
p2656
I01
sS'reunion'
p2657
I01
sS'luckili'
p2658
I01
sS'novak'
p2659
I01
sS'packag'
p2660
I01
sS'blond'
p2661
I01
sS'propos'
p2662
I01
sS'dedic'
p2663
I01
sS'parodi'
p2664
I01
sS'karl'
p2665
I01
sS'tierney'
p2666
I01
sS'sell'
p2667
I01
sS'imagin'
p2668
I01
sS'wilson'
p2669
I01
sS'built'
p2670
I01
sS'zero'
p2671
I01
sS'commentari'
p2672
I01
sS'self'
p2673
I01
sS'cave'
p2674
I01
sS'scotland'
p2675
I01
sS'couch'
p2676
I01
sS'lit'
p2677
I01
sS'also'
p2678
I01
sS'unintent'
p2679
I01
sS'lip'
p2680
I01
sS'build'
p2681
I01
sS'homicid'
p2682
I01
sS'schedul'
p2683
I01
sS'buff'
p2684
I01
sS'play'
p2685
I01
sS'distribut'
p2686
I01
sS'choos'
p2687
I01
sS'reach'
p2688
I01
sS'mixtur'
p2689
I01
sS'cinematograph'
p2690
I01
sS'react'
p2691
I01
sS'yawn'
p2692
I01
sS'brooklyn'
p2693
I01
sS'charm'
p2694
I01
sS'plan'
p2695
I01
sS'eaten'
p2696
I01
sS'sandra'
p2697
I01
sS'kay'
p2698
I01
sS'sirk'
p2699
I01
sS'charg'
p2700
I01
sS'amaz'
p2701
I01
sS'carla'
p2702
I01
sS'clear'
p2703
I01
sS'cover'
p2704
I01
sS'destruct'
p2705
I01
sS'tongu'
p2706
I01
sS'resembl'
p2707
I01
sS'barrel'
p2708
I01
sS'notch'
p2709
I01
sS'blend'
p2710
I01
sS'profan'
p2711
I01
sS'awesom'
p2712
I01
sS'visibl'
p2713
I01
sS'taxi'
p2714
I01
sS'ridicul'
p2715
I01
sS'gold'
p2716
I01
sS'melodi'
p2717
I01
sS'fond'
p2718
I01
sS'hopper'
p2719
I01
sS'session'
p2720
I01
sS'alert'
p2721
I01
sS'barrymor'
p2722
I01
sS'uncov'
p2723
I01
sS'stalker'
p2724
I01
sS'coaster'
p2725
I01
sS'reput'
p2726
I01
sS'fine'
p2727
I01
sS'find'
p2728
I01
sS'impact'
p2729
I01
sS'cell'
p2730
I01
sS'giant'
p2731
I01
sS'randi'
p2732
I01
sS'pretti'
p2733
I01
sS'nervous'
p2734
I01
sS'ruin'
p2735
I01
sS'writer'
p2736
I01
sS'solut'
p2737
I01
sS'paranoia'
p2738
I01
sS'scoobi'
p2739
I01
sS'experiment'
p2740
I01
sS'fulci'
p2741
I01
sS'central'
p2742
I01
sS'factor'
p2743
I01
sS'bullet'
p2744
I01
sS'halloween'
p2745
I01
sS'unhappi'
p2746
I01
sS'hip'
p2747
I01
sS'ballet'
p2748
I01
sS'hit'
p2749
I01
sS'albeit'
p2750
I01
sS'luke'
p2751
I01
sS'financ'
p2752
I01
sS'swing'
p2753
I01
sS'famous'
p2754
I01
sS'b'
p2755
I01
sS'actress'
p2756
I01
sS'donald'
p2757
I01
sS'basement'
p2758
I01
sS'ambiti'
p2759
I01
sS'dose'
p2760
I01
sS'sunni'
p2761
I01
sS'target'
p2762
I01
sS'uncomfort'
p2763
I01
sS'homag'
p2764
I01
sS'timeless'
p2765
I01
sS'poverti'
p2766
I01
sS'enemi'
p2767
I01
sS'li'
p2768
I01
sS'common'
p2769
I01
sS'hype'
p2770
I01
sS'x'
p2771
I01
sS'vincent'
p2772
I01
sS'cri'
p2773
I01
sS'rivet'
p2774
I01
sS'wrote'
p2775
I01
sS'cole'
p2776
I01
sS'set'
p2777
I01
sS'art'
p2778
I01
sS'dump'
p2779
I01
sS'creator'
p2780
I01
sS'overwhelm'
p2781
I01
sS'sex'
p2782
I01
sS'tip'
p2783
I01
sS'see'
p2784
I01
sS'arc'
p2785
I01
sS'dumb'
p2786
I01
sS'futurist'
p2787
I01
sS'sea'
p2788
I01
sS'laurel'
p2789
I01
sS'tender'
p2790
I01
sS'reserv'
p2791
I01
sS'whatsoev'
p2792
I01
sS'lee'
p2793
I01
sS'seal'
p2794
I01
sS'shower'
p2795
I01
sS'spiritu'
p2796
I01
sS'horrif'
p2797
I01
sS'expert'
p2798
I01
sS'merci'
p2799
I01
sS'baldwin'
p2800
I01
sS'someth'
p2801
I01
sS'grandmoth'
p2802
I01
sS'particip'
p2803
I01
sS'debat'
p2804
I01
sS'woo'
p2805
I01
sS'won'
p2806
I01
sS'various'
p2807
I01
sS'flame'
p2808
I01
sS'experi'
p2809
I01
sS'compliment'
p2810
I01
sS'altern'
p2811
I01
sS'blow'
p2812
I01
sS'latin'
p2813
I01
sS'appreci'
p2814
I01
sS'numer'
p2815
I01
sS'sold'
p2816
I01
sS'sole'
p2817
I01
sS'aspir'
p2818
I01
sS'isol'
p2819
I01
sS'outfit'
p2820
I01
sS'incident'
p2821
I01
sS'succeed'
p2822
I01
sS'infam'
p2823
I01
sS'arrang'
p2824
I01
sS'solv'
p2825
I01
sS'creatur'
p2826
I01
sS'melodrama'
p2827
I01
sS'purpl'
p2828
I01
sS'dane'
p2829
I01
sS'popul'
p2830
I01
sS'oppress'
p2831
I01
sS'satisfi'
p2832
I01
sS'c'
p2833
I01
sS'f'
p2834
I01
sS'last'
p2835
I01
sS'keaton'
p2836
I01
sS'parad'
p2837
I01
sS'alon'
p2838
I01
sS'natali'
p2839
I01
sS'grudg'
p2840
I01
sS'foreign'
p2841
I01
sS'roman'
p2842
I01
sS'context'
p2843
I01
sS'forgotten'
p2844
I01
sS'bond'
p2845
I01
sS'whole'
p2846
I01
sS'cynic'
p2847
I01
sS'load'
p2848
I01
sS'simpli'
p2849
I01
sS'distress'
p2850
I01
sS'point'
p2851
I01
sS'sweet'
p2852
I01
sS'bela'
p2853
I01
sS'sweep'
p2854
I01
sS'unrealist'
p2855
I01
sS'hollow'
p2856
I01
sS'acclaim'
p2857
I01
sS'provok'
p2858
I01
sS'suppli'
p2859
I01
sS'rave'
p2860
I01
sS'mistak'
p2861
I01
sS'throughout'
p2862
I01
sS'provoc'
p2863
I01
sS'communiti'
p2864
I01
sS'belt'
p2865
I01
sS'ps'
p2866
I01
sS'worthless'
p2867
I01
sS'forgiv'
p2868
I01
sS'digniti'
p2869
I01
sS'dealt'
p2870
I01
sS'duo'
p2871
I01
sS'celluloid'
p2872
I01
sS'dub'
p2873
I01
sS'overlook'
p2874
I01
sS'devic'
p2875
I01
sS'due'
p2876
I01
sS'empti'
p2877
I01
sS'miser'
p2878
I01
sS'runner'
p2879
I01
sS'secret'
p2880
I01
sS'newcom'
p2881
I01
sS'damn'
p2882
I01
sS'pg'
p2883
I01
sS'ireland'
p2884
I01
sS'damm'
p2885
I01
sS'threaten'
p2886
I01
sS'homosexu'
p2887
I01
sS'nois'
p2888
I01
sS'walter'
p2889
I01
sS'anthoni'
p2890
I01
sS'invis'
p2891
I01
sS'flight'
p2892
I01
sS'champion'
p2893
I01
sS'gay'
p2894
I01
sS'buck'
p2895
I01
sS'fire'
p2896
I01
sS'infect'
p2897
I01
sS'imag'
p2898
I01
sS'citizen'
p2899
I01
sS'gas'
p2900
I01
sS'remark'
p2901
I01
sS'gap'
p2902
I01
sS'fund'
p2903
I01
sS'vanc'
p2904
I01
sS'gal'
p2905
I01
sS'understand'
p2906
I01
sS'demand'
p2907
I01
sS'gag'
p2908
I01
sS'standout'
p2909
I01
sS'repetit'
p2910
I01
sS'educ'
p2911
I01
sS'struck'
p2912
I01
sS'invit'
p2913
I01
sS'scottish'
p2914
I01
sS'hitchcock'
p2915
I01
sS'politician'
p2916
I01
sS'look'
p2917
I01
sS'solid'
p2918
I01
sS'reunit'
p2919
I01
sS'straight'
p2920
I01
sS'bill'
p2921
I01
sS'budget'
p2922
I01
sS'crazi'
p2923
I01
sS'rope'
p2924
I01
sS'pace'
p2925
I01
sS'smart'
p2926
I01
sS'abov'
p2927
I01
sS'error'
p2928
I01
sS'fun'
p2929
I01
sS'fleet'
p2930
I01
sS'vice'
p2931
I01
sS'robin'
p2932
I01
sS'pack'
p2933
I01
sS'prejudic'
p2934
I01
sS'grip'
p2935
I01
sS'pound'
p2936
I01
sS'readi'
p2937
I01
sS'genr'
p2938
I01
sS'von'
p2939
I01
sS'owen'
p2940
I01
sS'demon'
p2941
I01
sS'astound'
p2942
I01
sS'rip'
p2943
I01
sS'shoddi'
p2944
I01
sS'centuri'
p2945
I01
sS'rid'
p2946
I01
sS'vanish'
p2947
I01
sS'tribe'
p2948
I01
sS'chase'
p2949
I01
sS'oper'
p2950
I01
sS'decor'
p2951
I01
sS'irrelev'
p2952
I01
sS'shaw'
p2953
I01
sS'grant'
p2954
I01
sS'belong'
p2955
I01
sS'reign'
p2956
I01
sS'butcher'
p2957
I01
sS'funni'
p2958
I01
sS'lengthi'
p2959
I01
sS'substanc'
p2960
I01
sS'itali'
p2961
I01
sS'seduct'
p2962
I01
sS'grand'
p2963
I01
sS'ruth'
p2964
I01
sS'conflict'
p2965
I01
sS'higher'
p2966
I01
sS'climact'
p2967
I01
sS'lie'
p2968
I01
sS'bonus'
p2969
I01
sS'blair'
p2970
I01
sS'wherea'
p2971
I01
sS'yesterday'
p2972
I01
sS'estat'
p2973
I01
sS'moment'
p2974
I01
sS'user'
p2975
I01
sS'priceless'
p2976
I01
sS'tiresom'
p2977
I01
sS'chang'
p2978
I01
sS'recent'
p2979
I01
sS'lower'
p2980
I01
sS'task'
p2981
I01
sS'equival'
p2982
I01
sS'eleg'
p2983
I01
sS'kelli'
p2984
I01
sS'entri'
p2985
I01
sS'chemistri'
p2986
I01
sS'spent'
p2987
I01
sS'maker'
p2988
I01
sS'person'
p2989
I01
sS'cheer'
p2990
I01
sS'chees'
p2991
I01
sS'expens'
p2992
I01
sS'elev'
p2993
I01
sS'y'
p2994
I01
sS'brillianc'
p2995
I01
sS'tast'
p2996
I01
sS'spend'
p2997
I01
sS'weakest'
p2998
I01
sS'explan'
p2999
I01
sS'coup'
p3000
I01
sS'detract'
p3001
I01
sS'hardi'
p3002
I01
sS'navi'
p3003
I01
sS'obscur'
p3004
I01
sS'indic'
p3005
I01
sS'collabor'
p3006
I01
sS'shape'
p3007
I01
sS'stunt'
p3008
I01
sS'love'
p3009
I01
sS'sullivan'
p3010
I01
sS'cut'
p3011
I01
sS'$'
p3012
I01
sS'cup'
p3013
I01
sS'eeri'
p3014
I01
sS'rambl'
p3015
I01
sS'sinist'
p3016
I01
sS'eager'
p3017
I01
sS'cue'
p3018
I01
sS'improb'
p3019
I01
sS'rear'
p3020
I01
sS'appli'
p3021
I01
sS'snap'
p3022
I01
sS'derek'
p3023
I01
sS'subsequ'
p3024
I01
sS'useless'
p3025
I01
sS'bin'
p3026
I01
sS'complaint'
p3027
I01
sS'australia'
p3028
I01
sS'march'
p3029
I01
sS'format'
p3030
I01
sS'big'
p3031
I01
sS'lincoln'
p3032
I01
sS'moodi'
p3033
I01
sS'game'
p3034
I01
sS'quest'
p3035
I01
sS'insert'
p3036
I01
sS'emma'
p3037
I01
sS'bit'
p3038
I01
sS'characterist'
p3039
I01
sS'knock'
p3040
I01
sS'd'
p3041
I01
sS'semi'
p3042
I01
sS'confront'
p3043
I01
sS'da'
p3044
I01
sS'resolv'
p3045
I01
sS'heart'
p3046
I01
sS'collect'
p3047
I01
sS'princip'
p3048
I01
sS'bbc'
p3049
I01
sS'dreck'
p3050
I01
sS'donna'
p3051
I01
sS'popular'
p3052
I01
sS'stylish'
p3053
I01
sS'foolish'
p3054
I01
sS'minist'
p3055
I01
sS'encount'
p3056
I01
sS'sketch'
p3057
I01
sS'mighti'
p3058
I01
sS'often'
p3059
I01
sS'door'
p3060
I01
sS'acknowledg'
p3061
I01
sS'creation'
p3062
I01
sS'back'
p3063
I01
sS'ah'
p3064
I01
sS'understood'
p3065
I01
sS'martian'
p3066
I01
sS'fabric'
p3067
I01
sS'sight'
p3068
I01
sS'mirror'
p3069
I01
sS'curious'
p3070
I01
sS'surpris'
p3071
I01
sS'pale'
p3072
I01
sS'scale'
p3073
I01
sS'expedit'
p3074
I01
sS'dull'
p3075
I01
sS'roth'
p3076
I01
sS'montag'
p3077
I01
sS'prison'
p3078
I01
sS'shall'
p3079
I01
sS'per'
p3080
I01
sS'prop'
p3081
I01
sS'religion'
p3082
I01
sS'pen'
p3083
I01
sS'larg'
p3084
I01
sS'carradin'
p3085
I01
sS'slash'
p3086
I01
sS'mummi'
p3087
I01
sS'carpent'
p3088
I01
sS'epic'
p3089
I01
sS'worship'
p3090
I01
sS'anna'
p3091
I01
sS'either'
p3092
I01
sS'machin'
p3093
I01
sS'patient'
p3094
I01
sS'rub'
p3095
I01
sS'scriptwrit'
p3096
I01
sS'fed'
p3097
I01
sS'step'
p3098
I01
sS'patienc'
p3099
I01
sS'othello'
p3100
I01
sS'br'
p3101
I01
sS'metaphor'
p3102
I01
sS'carol'
p3103
I01
sS'fenc'
p3104
I01
sS'impos'
p3105
I01
sS'wealth'
p3106
I01
sS'shine'
p3107
I01
sS'faith'
p3108
I01
sS'juvenil'
p3109
I01
sS'deceas'
p3110
I01
sS'morri'
p3111
I01
sS'materi'
p3112
I01
sS'memori'
p3113
I01
sS'virus'
p3114
I01
sS'page'
p3115
I01
sS'drama'
p3116
I01
sS'revolut'
p3117
I01
sS'masterpiec'
p3118
I01
sS'dialog'
p3119
I01
sS'stuart'
p3120
I01
sS'wanna'
p3121
I01
sS'block'
p3122
I01
sS'charl'
p3123
I01
sS'predat'
p3124
I01
sS'miracl'
p3125
I01
sS'hudson'
p3126
I01
sS'real'
p3127
I01
sS'primarili'
p3128
I01
sS'irrit'
p3129
I01
sS'farc'
p3130
I01
sS'dude'
p3131
I01
sS'within'
p3132
I01
sS'likabl'
p3133
I01
sS'slug'
p3134
I01
sS'drain'
p3135
I01
sS'savag'
p3136
I01
sS'steven'
p3137
I01
sS'ensur'
p3138
I01
sS'lesson'
p3139
I01
sS'artifici'
p3140
I01
sS'underst'
p3141
I01
sS'alison'
p3142
I01
sS'occupi'
p3143
I01
sS'span'
p3144
I01
sS'verbal'
p3145
I01
sS'grave'
p3146
I01
sS'lone'
p3147
I01
sS'percept'
p3148
I01
sS'fast'
p3149
I01
sS'custom'
p3150
I01
sS'dian'
p3151
I01
sS'camera'
p3152
I01
sS'includ'
p3153
I01
sS'exceed'
p3154
I01
sS'suit'
p3155
I01
sS'forward'
p3156
I01
sS'maria'
p3157
I01
sS'implaus'
p3158
I01
sS'larri'
p3159
I01
sS'reev'
p3160
I01
sS'jewish'
p3161
I01
sS'poster'
p3162
I01
sS'inept'
p3163
I01
sS'simplic'
p3164
I01
sS'boyl'
p3165
I01
sS'cloth'
p3166
I01
sS'link'
p3167
I01
sS'translat'
p3168
I01
sS'scope'
p3169
I01
sS'russian'
p3170
I01
sS'line'
p3171
I01
sS'murphi'
p3172
I01
sS'reel'
p3173
I01
sS'angri'
p3174
I01
sS'jacki'
p3175
I01
sS'patriot'
p3176
I01
sS'consist'
p3177
I01
sS'grinch'
p3178
I01
sS'us'
p3179
I01
sS'planet'
p3180
I01
sS'un'
p3181
I01
sS'uk'
p3182
I01
sS'sum'
p3183
I01
sS'repli'
p3184
I01
sS'highlight'
p3185
I01
sS'z'
p3186
I01
sS'similar'
p3187
I01
sS'alarm'
p3188
I01
sS'bever'
p3189
I01
sS'joel'
p3190
I01
sS'derang'
p3191
I01
sS'flop'
p3192
I01
sS'constant'
p3193
I01
sS'curs'
p3194
I01
sS'flow'
p3195
I01
sS'chan'
p3196
I01
sS'haunt'
p3197
I01
sS'doesn'
p3198
I01
sS'repres'
p3199
I01
sS'uninterest'
p3200
I01
sS'septemb'
p3201
I01
sS'home'
p3202
I01
sS'hospit'
p3203
I01
sS'graham'
p3204
I01
sS'exposit'
p3205
I01
sS'phantom'
p3206
I01
sS'%'
p3207
I01
sS'tone'
p3208
I01
sS'loser'
p3209
I01
sS'blade'
p3210
I01
sS'titl'
p3211
I01
sS'pat'
p3212
I01
sS'widmark'
p3213
I01
sS'club'
p3214
I01
sS'statement'
p3215
I01
sS'supernatur'
p3216
I01
sS'moron'
p3217
I01
sS'aunt'
p3218
I01
sS'manhattan'
p3219
I01
sS'mock'
p3220
I01
sS'nice'
p3221
I01
sS'draw'
p3222
I01
sS'clean'
p3223
I01
sS'lend'
p3224
I01
sS'amitabh'
p3225
I01
sS'william'
p3226
I01
sS'meaning'
p3227
I01
sS'fisher'
p3228
I01
sS'clue'
p3229
I01
sS'desert'
p3230
I01
sS'hackney'
p3231
I01
sS'deserv'
p3232
I01
sS'ago'
p3233
I01
sS'lane'
p3234
I01
sS'land'
p3235
I01
sS'e'
p3236
I01
sS'lead'
p3237
I01
sS'trail'
p3238
I01
sS'dvd'
p3239
I01
sS'outing'
p3240
I01
sS'notion'
p3241
I01
sS'depth'
p3242
I01
sS'garbo'
p3243
I01
sS'walker'
p3244
I01
sS'fresh'
p3245
I01
sS'beatti'
p3246
I01
sS'buffalo'
p3247
I01
sS'hello'
p3248
I01
sS'pervert'
p3249
I01
sS'partial'
p3250
I01
sS'edg'
p3251
I01
sS'scratch'
p3252
I01
sS'edi'
p3253
I01
sS'alien'
p3254
I01
sS'squar'
p3255
I01
sS'swedish'
p3256
I01
sS'gang'
p3257
I01
sS'go'
p3258
I01
sS'psycho'
p3259
I01
sS'superfici'
p3260
I01
sS'kate'
p3261
I01
sS'literari'
p3262
I01
sS'privat'
p3263
I01
sS'simon'
p3264
I01
sS'sensit'
p3265
I01
sS'elsewher'
p3266
I01
sS'young'
p3267
I01
sS'send'
p3268
I01
sS'nose'
p3269
I01
sS'moor'
p3270
I01
sS'becam'
p3271
I01
sS'visitor'
p3272
I01
sS'passion'
p3273
I01
sS'airplan'
p3274
I01
sS'fatal'
p3275
I01
sS'sent'
p3276
I01
sS'sniper'
p3277
I01
sS'queen'
p3278
I01
sS'splatter'
p3279
I01
sS'mainstream'
p3280
I01
sS'nichola'
p3281
I01
sS'deniro'
p3282
I01
sS'wave'
p3283
I01
sS'mous'
p3284
I01
sS'volum'
p3285
I01
sS'disast'
p3286
I01
sS'vacat'
p3287
I01
sS'spoof'
p3288
I01
sS'relev'
p3289
I01
sS'tri'
p3290
I01
sS'magic'
p3291
I01
sS'miscast'
p3292
I01
sS'knight'
p3293
I01
sS'button'
p3294
I01
sS'shock'
p3295
I01
sS'michael'
p3296
I01
sS'eve'
p3297
I01
sS'ryan'
p3298
I01
sS'subtitl'
p3299
I01
sS'race'
p3300
I01
sS'trite'
p3301
I01
sS'reson'
p3302
I01
sS'marri'
p3303
I01
sS'barbara'
p3304
I01
sS'joey'
p3305
I01
sS'pleas'
p3306
I01
sS'vehicl'
p3307
I01
sS'impli'
p3308
I01
sS'smaller'
p3309
I01
sS'fortun'
p3310
I01
sS'carter'
p3311
I01
sS'natur'
p3312
I01
sS'scientist'
p3313
I01
sS'soul'
p3314
I01
sS'jump'
p3315
I01
sS'crook'
p3316
I01
sS'helicopt'
p3317
I01
sS'video'
p3318
I01
sS'franchis'
p3319
I01
sS'acid'
p3320
I01
sS'odd'
p3321
I01
sS'click'
p3322
I01
sS'folk'
p3323
I01
sS'victor'
p3324
I01
sS'south'
p3325
I01
sS'poke'
p3326
I01
sS'compar'
p3327
I01
sS'chicago'
p3328
I01
sS'wore'
p3329
I01
sS'fianc'
p3330
I01
sS'rukh'
p3331
I01
sS'slight'
p3332
I01
sS'bergman'
p3333
I01
sS'access'
p3334
I01
sS'rotten'
p3335
I01
sS'indian'
p3336
I01
sS'bird'
p3337
I01
sS'whatev'
p3338
I01
sS'led'
p3339
I01
sS'chose'
p3340
I01
sS'leg'
p3341
I01
sS'meg'
p3342
I01
sS'sexi'
p3343
I01
sS'punch'
p3344
I01
sS'leo'
p3345
I01
sS'sceneri'
p3346
I01
sS'les'
p3347
I01
sS'let'
p3348
I01
sS'sink'
p3349
I01
sS'storytel'
p3350
I01
sS'fighter'
p3351
I01
sS'melodramat'
p3352
I01
sS'sing'
p3353
I01
sS'becom'
p3354
I01
sS'fifteen'
p3355
I01
sS'sinc'
p3356
I01
sS'great'
p3357
I01
sS'stark'
p3358
I01
sS'talent'
p3359
I01
sS'convers'
p3360
I01
sS'survivor'
p3361
I01
sS'laughter'
p3362
I01
sS'conceiv'
p3363
I01
sS'larger'
p3364
I01
sS'technolog'
p3365
I01
sS'poignant'
p3366
I01
sS'karloff'
p3367
I01
sS'resurrect'
p3368
I01
sS'painter'
p3369
I01
sS'sword'
p3370
I01
sS'defeat'
p3371
I01
sS'popcorn'
p3372
I01
sS'opinion'
p3373
I01
sS'typic'
p3374
I01
sS'gene'
p3375
I01
sS'honor'
p3376
I01
sS'chanc'
p3377
I01
sS'tenant'
p3378
I01
sS'wig'
p3379
I01
sS'employe'
p3380
I01
sS'clark'
p3381
I01
sS'danger'
p3382
I01
sS'pitch'
p3383
I01
sS'win'
p3384
I01
sS'emot'
p3385
I01
sS'apt'
p3386
I01
sS'wit'
p3387
I01
sS'blah'
p3388
I01
sS'zizek'
p3389
I01
sS'duck'
p3390
I01
sS'gimmick'
p3391
I01
sS'sugar'
p3392
I01
sS'cloud'
p3393
I01
sS'ape'
p3394
I01
sS'use'
p3395
I01
sS'crap'
p3396
I01
sS'kenneth'
p3397
I01
sS'usa'
p3398
I01
sS'&'
p3399
I01
sS'doubl'
p3400
I01
sS'sympathet'
p3401
I01
sS'next'
p3402
I01
sS'websit'
p3403
I01
sS'doubt'
p3404
I01
sS'conneri'
p3405
I01
sS'lesli'
p3406
I01
sS'jonathan'
p3407
I01
sS'lewi'
p3408
I01
sS'betray'
p3409
I01
sS'sort'
p3410
I01
sS'clever'
p3411
I01
sS'babe'
p3412
I01
sS'disgust'
p3413
I01
sS'babi'
p3414
I01
sS'trait'
p3415
I01
sS'musician'
p3416
I01
sS'impress'
p3417
I01
sS'columbo'
p3418
I01
sS'sore'
p3419
I01
sS'train'
p3420
I01
sS'rubbish'
p3421
I01
sS'actual'
p3422
I01
sS'gambl'
p3423
I01
sS'iii'
p3424
I01
sS'wretch'
p3425
I01
sS'women'
p3426
I01
sS'annoy'
p3427
I01
sS'tad'
p3428
I01
sS'account'
p3429
I01
sS'alik'
p3430
I01
sS'spi'
p3431
I01
sS'tunnel'
p3432
I01
sS'gabriel'
p3433
I01
sS'ride'
p3434
I01
sS'alic'
p3435
I01
sS'stroke'
p3436
I01
sS'pour'
p3437
I01
sS'unreal'
p3438
I01
sS'obvious'
p3439
I01
sS'thin'
p3440
I01
sS'rooney'
p3441
I01
sS'meet'
p3442
I01
sS'drunk'
p3443
I01
sS'fetch'
p3444
I01
sS'aliv'
p3445
I01
sS'proof'
p3446
I01
sS'control'
p3447
I01
sS'tarantino'
p3448
I01
sS'tap'
p3449
I01
sS'contempl'
p3450
I01
sS'jodi'
p3451
I01
sS'process'
p3452
I01
sS'lock'
p3453
I01
sS'millionair'
p3454
I01
sS'tax'
p3455
I01
sS'high'
p3456
I01
sS'villain'
p3457
I01
sS'tag'
p3458
I01
sS'downhil'
p3459
I01
sS'bend'
p3460
I01
sS'slip'
p3461
I01
sS'onlin'
p3462
I01
sS'serial'
p3463
I01
sS'crimin'
p3464
I01
sS'rape'
p3465
I01
sS'everywher'
p3466
I01
sS'cring'
p3467
I01
sS'surfac'
p3468
I01
sS'orson'
p3469
I01
sS'sit'
p3470
I01
sS'comedi'
p3471
I01
sS'blob'
p3472
I01
sS'georg'
p3473
I01
sS'brian'
p3474
I01
sS'inmat'
p3475
I01
sS'mari'
p3476
I01
sS'sid'
p3477
I01
sS'instead'
p3478
I01
sS'mccoy'
p3479
I01
sS'scroog'
p3480
I01
sS'panic'
p3481
I01
sS'sin'
p3482
I01
sS'inher'
p3483
I01
sS'stock'
p3484
I01
sS'fare'
p3485
I01
sS'tension'
p3486
I01
sS'express'
p3487
I01
sS'attend'
p3488
I01
sS'sir'
p3489
I01
sS'farm'
p3490
I01
sS'watch'
p3491
I01
sS'await'
p3492
I01
sS'fart'
p3493
I01
sS'attent'
p3494
I01
sS'ethnic'
p3495
I01
sS'philosophi'
p3496
I01
sS'choppi'
p3497
I01
sS'physic'
p3498
I01
sS'tomato'
p3499
I01
sS'villag'
p3500
I01
sS'assassin'
p3501
I01
sS'essenti'
p3502
I01
sS'nanci'
p3503
I01
sS'nativ'
p3504
I01
sS'light'
p3505
I01
sS'lame'
p3506
I01
sS'liner'
p3507
I01
sS'element'
p3508
I01
sS'issu'
p3509
I01
sS'scoop'
p3510
I01
sS'chief'
p3511
I01
sS'spain'
p3512
I01
sS'wwii'
p3513
I01
sS'allow'
p3514
I01
sS'furious'
p3515
I01
sS'ellen'
p3516
I01
sS'loud'
p3517
I01
sS'breast'
p3518
I01
sS'six'
p3519
I01
sS'movi'
p3520
I01
sS'insight'
p3521
I01
sS'imperson'
p3522
I01
sS'elit'
p3523
I01
sS'whilst'
p3524
I01
sS'grayson'
p3525
I01
sS'warren'
p3526
I01
sS'perfect'
p3527
I01
sS'superior'
p3528
I01
sS'blake'
p3529
I01
sS'le'
p3530
I01
sS'outer'
p3531
I01
sS'bridget'
p3532
I01
sS'la'
p3533
I01
sS'chosen'
p3534
I01
sS'll'
p3535
I01
sS'glenn'
p3536
I01
sS'brook'
p3537
I01
sS'nostalgia'
p3538
I01
sS'labor'
p3539
I01
sS'vital'
p3540
I01
sS'restrain'
p3541
I01
sS'decad'
p3542
I01
sS'therefor'
p3543
I01
sS'hoffman'
p3544
I01
sS'forest'
p3545
I01
sS'dad'
p3546
I01
sS'freeman'
p3547
I01
sS'crash'
p3548
I01
sS'greater'
p3549
I01
sS'legendari'
p3550
I01
sS'handl'
p3551
I01
sS'dan'
p3552
I01
sS'overal'
p3553
I01
sS'earn'
p3554
I01
sS'tribut'
p3555
I01
sS'relentless'
p3556
I01
sS'newman'
p3557
I01
sS'mention'
p3558
I01
sS'snake'
p3559
I01
sS'kiss'
p3560
I01
sS'front'
p3561
I01
sS'garner'
p3562
I01
sS'cage'
p3563
I01
sS'day'
p3564
I01
sS'billi'
p3565
I01
sS'somewher'
p3566
I01
sS'thrill'
p3567
I01
sS'anyth'
p3568
I01
sS'edit'
p3569
I01
sS'poetri'
p3570
I01
sS'slide'
p3571
I01
sS'denzel'
p3572
I01
sS'mode'
p3573
I01
sS'truth'
p3574
I01
sS'beneath'
p3575
I01
sS'warner'
p3576
I01
sS'societi'
p3577
I01
sS'map'
p3578
I01
sS'bump'
p3579
I01
sS'globe'
p3580
I01
sS'uwe'
p3581
I01
sS'spielberg'
p3582
I01
sS'consum'
p3583
I01
sS'banal'
p3584
I01
sS'secretari'
p3585
I01
sS'sexual'
p3586
I01
sS'wander'
p3587
I01
sS'special'
p3588
I01
sS'matt'
p3589
I01
sS'argument'
p3590
I01
sS'matrix'
p3591
I01
sS'sentiment'
p3592
I01
sS'bag'
p3593
I01
sS'influenc'
p3594
I01
sS'confess'
p3595
I01
sS'repress'
p3596
I01
sS'categori'
p3597
I01
sS'prom'
p3598
I01
sS'mate'
p3599
I01
sS'suitabl'
p3600
I01
sS'disappear'
p3601
I01
sS'max'
p3602
I01
sS'calib'
p3603
I01
sS'wick'
p3604
I01
sS'stun'
p3605
I01
sS'dive'
p3606
I01
sS'red'
p3607
I01
sS'obsess'
p3608
I01
sS'franc'
p3609
I01
sS'shut'
p3610
I01
sS'jessica'
p3611
I01
sS'insid'
p3612
I01
sS'frank'
p3613
I01
sS'manipul'
p3614
I01
sS'colonel'
p3615
I01
sS'jeff'
p3616
I01
sS'invad'
p3617
I01
sS'wizard'
p3618
I01
sS'trashi'
p3619
I01
sS'york'
p3620
I01
sS'usual'
p3621
I01
sS'releas'
p3622
I01
sS'embarrass'
p3623
I01
sS'philip'
p3624
I01
sS'molli'
p3625
I01
sS'bleed'
p3626
I01
sS'greedi'
p3627
I01
sS'etern'
p3628
I01
sS'river'
p3629
I01
sS'squad'
p3630
I01
sS'g'
p3631
I01
sS'propaganda'
p3632
I01
sS'enchant'
p3633
I01
sS'florida'
p3634
I01
sS'keep'
p3635
I01
sS'counterpart'
p3636
I01
sS'scari'
p3637
I01
sS'length'
p3638
I01
sS'enforc'
p3639
I01
sS'curti'
p3640
I01
sS'outsid'
p3641
I01
sS'presid'
p3642
I01
sS'cain'
p3643
I01
sS'parallel'
p3644
I01
sS'austin'
p3645
I01
sS'scare'
p3646
I01
sS'waitress'
p3647
I01
sS'mankind'
p3648
I01
sS'finest'
p3649
I01
sS'blown'
p3650
I01
sS'franki'
p3651
I01
sS'qualiti'
p3652
I01
sS'scene'
p3653
I01
sS'echo'
p3654
I01
sS'phil'
p3655
I01
sS'puppet'
p3656
I01
sS'bitch'
p3657
I01
sS'owner'
p3658
I01
sS'cousin'
p3659
I01
sS'suffic'
p3660
I01
sS'prank'
p3661
I01
sS'sharon'
p3662
I01
sS'ancient'
p3663
I01
sS'monkey'
p3664
I01
sS'los'
p3665
I01
sS'unknown'
p3666
I01
sS'vulgar'
p3667
I01
sS'accent'
p3668
I01
sS'system'
p3669
I01
sS'messag'
p3670
I01
sS'attach'
p3671
I01
sS'attack'
p3672
I01
sS'sergeant'
p3673
I01
sS'ton'
p3674
I01
sS'termin'
p3675
I01
sS'final'
p3676
I01
sS'boil'
p3677
I01
sS'shell'
p3678
I01
sS'stomach'
p3679
I01
sS'gear'
p3680
I01
sS'jesus'
p3681
I01
sS'punish'
p3682
I01
sS'juli'
p3683
I01
sS'shallow'
p3684
I01
sS'accompani'
p3685
I01
sS'josh'
p3686
I01
sS'academi'
p3687
I01
sS'anybodi'
p3688
I01
sS'haven'
p3689
I01
sS'neck'
p3690
I01
sS'steel'
p3691
I01
sS'nun'
p3692
I01
sS'photograph'
p3693
I01
sS'ben'
p3694
I01
sS'aka'
p3695
I01
sS'repuls'
p3696
I01
sS'wet'
p3697
I01
sS'bother'
p3698
I01
sS'unorigin'
p3699
I01
sS'beg'
p3700
I01
sS'structur'
p3701
I01
sS'charact'
p3702
I01
sS'muppet'
p3703
I01
sS'sens'
p3704
I01
sS'lover'
p3705
I01
sS'bare'
p3706
I01
sS'psycholog'
p3707
I01
sS'kubrick'
p3708
I01
sS'bet'
p3709
I01
sS'tommi'
p3710
I01
sS'exhibit'
p3711
I01
sS'function'
p3712
I01
sS'shakespear'
p3713
I01
sS'clip'
p3714
I01
sS'terribl'
p3715
I01
sS'viewer'
p3716
I01
sS'explicit'
p3717
I01
sS'robot'
p3718
I01
sS'tonight'
p3719
I01
sS'corrupt'
p3720
I01
sS'imdb'
p3721
I01
sS'immigr'
p3722
I01
sS'coher'
p3723
I01
sS'close'
p3724
I01
sS'need'
p3725
I01
sS'st'
p3726
I01
sS'border'
p3727
I01
sS'screw'
p3728
I01
sS'depict'
p3729
I01
sS'min'
p3730
I01
sS'mclaglen'
p3731
I01
sS'rout'
p3732
I01
sS'lili'
p3733
I01
sS'mid'
p3734
I01
sS'accuraci'
p3735
I01
sS'mix'
p3736
I01
sS'unawar'
p3737
I01
sS'tactic'
p3738
I01
sS'holm'
p3739
I01
sS'combin'
p3740
I01
sS'korean'
p3741
I01
sS'soap'
p3742
I01
sS'singl'
p3743
I01
sS'analysi'
p3744
I01
sS'pete'
p3745
I01
sS'junior'
p3746
I01
sS'unless'
p3747
I01
sS'agenda'
p3748
I01
sS'clash'
p3749
I01
sS'african'
p3750
I01
sS'salli'
p3751
I01
sS'whi'
p3752
I01
sS'discov'
p3753
I01
sS'mortal'
p3754
I01
sS'altman'
p3755
I01
sS'handsom'
p3756
I01
sS'eight'
p3757
I01
sS'tall'
p3758
I01
sS'awe'
p3759
I01
sS'segment'
p3760
I01
sS'class'
p3761
I01
sS'landscap'
p3762
I01
sS'urg'
p3763
I01
sS'nazi'
p3764
I01
sS'gather'
p3765
I01
sS'upset'
p3766
I01
sS'face'
p3767
I01
sS'inde'
p3768
I01
sS'deni'
p3769
I01
sS'malon'
p3770
I01
sS'absurd'
p3771
I01
sS'determin'
p3772
I01
sS'occasion'
p3773
I01
sS'hardcor'
p3774
I01
sS'indi'
p3775
I01
sS'wow'
p3776
I01
sS'fact'
p3777
I01
sS'ho'
p3778
I01
sS'affair'
p3779
I01
sS'parker'
p3780
I01
sS'brenda'
p3781
I01
sS'dorothi'
p3782
I01
sS'text'
p3783
I01
sS'unseen'
p3784
I01
sS'anyway'
p3785
I01
sS'hamlet'
p3786
I01
sS'bring'
p3787
I01
sS'stilt'
p3788
I01
sS'lloyd'
p3789
I01
sS'johnni'
p3790
I01
sS'bedroom'
p3791
I01
sS'utter'
p3792
I01
sS'fear'
p3793
I01
sS'asylum'
p3794
I01
sS'texa'
p3795
I01
sS'eas'
p3796
I01
sS'staff'
p3797
I01
sS'footbal'
p3798
I01
sS'highest'
p3799
I01
sS'locat'
p3800
I01
sS'yeti'
p3801
I01
sS'tire'
p3802
I01
sS'hadn'
p3803
I01
sS'jaw'
p3804
I01
sS'winner'
p3805
I01
sS'jar'
p3806
I01
sS'forev'
p3807
I01
sS'hyster'
p3808
I01
sS'jan'
p3809
I01
sS'gestur'
p3810
I01
sS'suppos'
p3811
I01
sS'ethan'
p3812
I01
sS'intrigu'
p3813
I01
sS'communist'
p3814
I01
sS'spice'
p3815
I01
sS'local'
p3816
I01
sS'hope'
p3817
I01
sS'meant'
p3818
I01
sS'move'
p3819
I01
sS'contribut'
p3820
I01
sS'ludicr'
p3821
I01
sS'beat'
p3822
I01
sS'familiar'
p3823
I01
sS'sassi'
p3824
I01
sS'disagre'
p3825
I01
sS'hire'
p3826
I01
sS'passeng'
p3827
I01
sS'awak'
p3828
I01
sS'redeem'
p3829
I01
sS'increas'
p3830
I01
sS'photographi'
p3831
I01
sS'lucki'
p3832
I01
sS'endless'
p3833
I01
sS'smash'
p3834
I01
sS'reluct'
p3835
I01
sS'organ'
p3836
I01
sS'graduat'
p3837
I01
sS'countrysid'
p3838
I01
sS'h'
p3839
I01
sS'rage'
p3840
I01
sS'femm'
p3841
I01
sS'reid'
p3842
I01
sS'devast'
p3843
I01
sS'stuff'
p3844
I01
sS'integr'
p3845
I01
sS'contain'
p3846
I01
sS'shi'
p3847
I01
sS'grab'
p3848
I01
sS'craven'
p3849
I01
sS'view'
p3850
I01
sS'legaci'
p3851
I01
sS'warrior'
p3852
I01
sS'credibl'
p3853
I01
sS'horrend'
p3854
I01
sS'frame'
p3855
I01
sS'showdown'
p3856
I01
sS'abort'
p3857
I01
sS'apolog'
p3858
I01
sS'bourn'
p3859
I01
sS'distract'
p3860
I01
sS'teas'
p3861
I01
sS'equip'
p3862
I01
sS'stack'
p3863
I01
sS'bibl'
p3864
I01
sS'closer'
p3865
I01
sS'statu'
p3866
I01
sS'shaki'
p3867
I01
sS'superhero'
p3868
I01
sS'closet'
p3869
I01
sS'pattern'
p3870
I01
sS'ralph'
p3871
I01
sS'thumb'
p3872
I01
sS'superb'
p3873
I01
sS'genius'
p3874
I01
sS'state'
p3875
I01
sS'unravel'
p3876
I01
sS'destini'
p3877
I01
sS'tens'
p3878
I01
sS'progress'
p3879
I01
sS'neither'
p3880
I01
sS'bunch'
p3881
I01
sS'induc'
p3882
I01
sS'midnight'
p3883
I01
sS'bought'
p3884
I01
sS'centr'
p3885
I01
sS'ken'
p3886
I01
sS'bed'
p3887
I01
sS'joy'
p3888
I01
sS'gotta'
p3889
I01
sS'dislik'
p3890
I01
sS'shanghai'
p3891
I01
sS'job'
p3892
I01
sS'entir'
p3893
I01
sS'joe'
p3894
I01
sS'spoil'
p3895
I01
sS'werewolf'
p3896
I01
sS'precious'
p3897
I01
sS'pirat'
p3898
I01
sS'illog'
p3899
I01
sS'addit'
p3900
I01
sS'revers'
p3901
I01
sS'instant'
p3902
I01
sS'buster'
p3903
I01
sS'extens'
p3904
I01
sS'career'
p3905
I01
sS'joke'
p3906
I01
sS'equal'
p3907
I01
sS'drug'
p3908
I01
sS'pulp'
p3909
I01
sS'marti'
p3910
I01
sS'april'
p3911
I01
sS'admit'
p3912
I01
sS'empathi'
p3913
I01
sS'admir'
p3914
I01
sS'swim'
p3915
I01
sS'swallow'
p3916
I01
sS'darker'
p3917
I01
sS'afraid'
p3918
I01
sS'glorious'
p3919
I01
sS'comment'
p3920
I01
sS'dement'
p3921
I01
sS'co'
p3922
I01
sS'extent'
p3923
I01
sS'toilet'
p3924
I01
sS'wall'
p3925
I01
sS'cg'
p3926
I01
sS'arriv'
p3927
I01
sS'walk'
p3928
I01
sS'commend'
p3929
I01
sS'distinguish'
p3930
I01
sS'greg'
p3931
I01
sS'laugh'
p3932
I01
sS'toler'
p3933
I01
sS'respect'
p3934
I01
sS'mafia'
p3935
I01
sS'basing'
p3936
I01
sS'quit'
p3937
I01
sS'slowli'
p3938
I01
sS'creat'
p3939
I01
sS'curios'
p3940
I01
sS'catherin'
p3941
I01
sS'decent'
p3942
I01
sS'trademark'
p3943
I01
sS'compos'
p3944
I01
sS'cent'
p3945
I01
sS'shame'
p3946
I01
sS'blatant'
p3947
I01
sS'besid'
p3948
I01
sS'treat'
p3949
I01
sS'electr'
p3950
I01
sS'immedi'
p3951
I01
sS'domino'
p3952
I01
sS'cheek'
p3953
I01
sS'mike'
p3954
I01
sS'treasur'
p3955
I01
sS'spock'
p3956
I01
sS'presenc'
p3957
I01
sS'coincid'
p3958
I01
sS'ray'
p3959
I01
sS'meaningless'
p3960
I01
sS'deliber'
p3961
I01
sS'atlanti'
p3962
I01
sS'togeth'
p3963
I01
sS'bull'
p3964
I01
sS'ador'
p3965
I01
sS'gross'
p3966
I01
sS'fellow'
p3967
I01
sS'plausibl'
p3968
I01
sS'present'
p3969
I01
sS'crappi'
p3970
I01
sS'homer'
p3971
I01
sS'ingredi'
p3972
I01
sS'multi'
p3973
I01
sS'novel'
p3974
I01
sS'plain'
p3975
I01
sS'nd'
p3976
I01
sS'harder'
p3977
I01
sS'implic'
p3978
I01
sS'will'
p3979
I01
sS'defin'
p3980
I01
sS'fault'
p3981
I01
sS'wild'
p3982
I01
sS'ultra'
p3983
I01
sS'howev'
p3984
I01
sS'watson'
p3985
I01
sS'layer'
p3986
I01
sS'purchas'
p3987
I01
sS've'
p3988
I01
sS'ensembl'
p3989
I01
sS'almost'
p3990
I01
sS'fonda'
p3991
I01
sS'cultur'
p3992
I01
sS'thus'
p3993
I01
sS'site'
p3994
I01
sS'pitt'
p3995
I01
sS'lust'
p3996
I01
sS'vs'
p3997
I01
sS'gothic'
p3998
I01
sS'thug'
p3999
I01
sS'partner'
p4000
I01
sS'inspector'
p4001
I01
sS'primit'
p4002
I01
sS'scienc'
p4003
I01
sS'portray'
p4004
I01
sS'cathol'
p4005
I01
sS'terrorist'
p4006
I01
sS'welcom'
p4007
I01
sS'japanes'
p4008
I01
sS'generic'
p4009
I01
sS'parti'
p4010
I01
sS'began'
p4011
I01
sS'cross'
p4012
I01
sS'eric'
p4013
I01
sS'member'
p4014
I01
sS'foxx'
p4015
I01
sS'wheel'
p4016
I01
sS'pauli'
p4017
I01
sS'underground'
p4018
I01
sS'failur'
p4019
I01
sS'cream'
p4020
I01
sS'eva'
p4021
I01
sS'flair'
p4022
I01
sS'difficult'
p4023
I01
sS'competit'
p4024
I01
sS'prais'
p4025
I01
sS'ball'
p4026
I01
sS'slave'
p4027
I01
sS'raymond'
p4028
I01
sS'selfish'
p4029
I01
sS'flesh'
p4030
I01
sS'absorb'
p4031
I01
sS'drink'
p4032
I01
sS'upon'
p4033
I01
sS'effect'
p4034
I01
sS'coffe'
p4035
I01
sS'beast'
p4036
I01
sS'exot'
p4037
I01
sS'student'
p4038
I01
sS'dust'
p4039
I01
sS'whale'
p4040
I01
sS'judgment'
p4041
I01
sS'expand'
p4042
I01
sS'audit'
p4043
I01
sS'retard'
p4044
I01
sS'priest'
p4045
I01
sS'ashley'
p4046
I01
sS'center'
p4047
I01
sS'nevertheless'
p4048
I01
sS'colour'
p4049
I01
sS'contest'
p4050
I01
sS'well'
p4051
I01
sS'uninspir'
p4052
I01
sS'thought'
p4053
I01
sS'likewis'
p4054
I01
sS'exampl'
p4055
I01
sS'command'
p4056
I01
sS'english'
p4057
I01
sS'rifl'
p4058
I01
sS'audio'
p4059
I01
sS'soviet'
p4060
I01
sS'sibl'
p4061
I01
sS'latest'
p4062
I01
sS'nerv'
p4063
I01
sS'olli'
p4064
I01
sS'distanc'
p4065
I01
sS'cameo'
p4066
I01
sS'paus'
p4067
I01
sS'rocket'
p4068
I01
sS'less'
p4069
I01
sS'wagner'
p4070
I01
sS'obtain'
p4071
I01
sS'mistaken'
p4072
I01
sS'gun'
p4073
I01
sS'distant'
p4074
I01
sS'surpass'
p4075
I01
sS'heavili'
p4076
I01
sS'episod'
p4077
I01
sS'paul'
p4078
I01
sS'keen'
p4079
I01
sS'griffith'
p4080
I01
sS'brad'
p4081
I01
sS'web'
p4082
I01
sS'generous'
p4083
I01
sS'rapid'
p4084
I01
sS'wed'
p4085
I01
sS'flee'
p4086
I01
sS'bell'
p4087
I01
sS'smith'
p4088
I01
sS'lake'
p4089
I01
sS'heston'
p4090
I01
sS'discuss'
p4091
I01
sS'wes'
p4092
I01
sS'arrest'
p4093
I01
sS'add'
p4094
I01
sS'crack'
p4095
I01
sS'niro'
p4096
I01
sS'introduct'
p4097
I01
sS'warrant'
p4098
I01
sS'sammi'
p4099
I01
sS'match'
p4100
I01
sS'boom'
p4101
I01
sS'critiqu'
p4102
I01
sS'sick'
p4103
I01
sS'fate'
p4104
I01
sS'piec'
p4105
I01
sS'arguabl'
p4106
I01
sS'ridden'
p4107
I01
sS'realiz'
p4108
I01
sS'five'
p4109
I01
sS'know'
p4110
I01
sS'facial'
p4111
I01
sS'press'
p4112
I01
sS'realis'
p4113
I01
sS'betti'
p4114
I01
sS'loss'
p4115
I01
sS'sissi'
p4116
I01
sS'resid'
p4117
I01
sS'like'
p4118
I01
sS'success'
p4119
I01
sS'incred'
p4120
I01
sS'corpor'
p4121
I01
sS'profound'
p4122
I01
sS'karen'
p4123
I01
sS'clown'
p4124
I01
sS'opera'
p4125
I01
sS'dancer'
p4126
I01
sS'necessari'
p4127
I01
sS'journalist'
p4128
I01
sS'lose'
p4129
I01
sS'chick'
p4130
I01
sS'funniest'
p4131
I01
sS'soft'
p4132
I01
sS'crisi'
p4133
I01
sS'candi'
p4134
I01
sS'italian'
p4135
I01
sS'shed'
p4136
I01
sS'didn'
p4137
I01
sS'glare'
p4138
I01
sS'captur'
p4139
I01
sS'church'
p4140
I01
sS'thief'
p4141
I01
sS'hair'
p4142
I01
sS'sophist'
p4143
I01
sS'francisco'
p4144
I01
sS'convey'
p4145
I01
sS'proper'
p4146
I01
sS'guarante'
p4147
I01
sS'peter'
p4148
I01
sS'gonna'
p4149
I01
sS'transport'
p4150
I01
sS'trust'
p4151
I01
sS'nuclear'
p4152
I01
sS'disbelief'
p4153
I01
sS'broad'
p4154
I01
sS'avoid'
p4155
I01
sS'lean'
p4156
I01
sS'leap'
p4157
I01
sS'leav'
p4158
I01
sS'settl'
p4159
I01
sS'baddi'
p4160
I01
sS'launch'
p4161
I01
sS'hippi'
p4162
I01
sS'nake'
p4163
I01
sS'leader'
p4164
I01
sS'trap'
p4165
I01
sS'encourag'
p4166
I01
sS'investig'
p4167
I01
sS'proud'
p4168
I01
sS'worthi'
p4169
I01
sS'stellar'
p4170
I01
sS'lugosi'
p4171
I01
sS'host'
p4172
I01
sS'reveng'
p4173
I01
sS'although'
p4174
I01
sS'instinct'
p4175
I01
sS'vengeanc'
p4176
I01
sS'stage'
p4177
I01
sS'unwatch'
p4178
I01
sS'sister'
p4179
I01
sS'quarter'
p4180
I01
sS'rare'
p4181
I01
sS'justin'
p4182
I01
sS'linger'
p4183
I01
sS'justic'
p4184
I01
sS'freedom'
p4185
I01
sS'gundam'
p4186
I01
sS'documentari'
p4187
I01
sS'sidekick'
p4188
I01
sS'swear'
p4189
I01
sS'bridg'
p4190
I01
sS'blockbust'
p4191
I01
sS'emperor'
p4192
I01
sS'disabl'
p4193
I01
sS'desper'
p4194
I01
sS'absolut'
p4195
I01
sS'el'
p4196
I01
sS'owe'
p4197
I01
sS'tight'
p4198
I01
sS'tortur'
p4199
I01
sS'washington'
p4200
I01
sS'automat'
p4201
I01
sS'stan'
p4202
I01
sS'guard'
p4203
I01
sS'lundgren'
p4204
I01
sS'perpetu'
p4205
I01
sS'awhil'
p4206
I01
sS'austen'
p4207
I01
sS'pointless'
p4208
I01
sS'mere'
p4209
I01
sS'van'
p4210
I01
sS'pictur'
p4211
I01
sS'transfer'
p4212
I01
sS'museum'
p4213
I01
sS'cinderella'
p4214
I01
sS'charisma'
p4215
I01
sS'intellig'
p4216
I01
sS'petti'
p4217
I01
sS'inner'
p4218
I01
sS'ed'
p4219
I01
sS'biggest'
p4220
I01
sS'gut'
p4221
I01
sS'jason'
p4222
I01
sS'deliveri'
p4223
I01
sS'buy'
p4224
I01
sS'north'
p4225
I01
sS'unexpect'
p4226
I01
sS'innoc'
p4227
I01
sS'bus'
p4228
I01
sS'brand'
p4229
I01
sS'sequel'
p4230
I01
sS'yeah'
p4231
I01
sS'bodi'
p4232
I01
sS'gain'
p4233
I01
sS'grate'
p4234
I01
sS'culmin'
p4235
I01
sS'ha'
p4236
I01
sS'bug'
p4237
I01
sS'bud'
p4238
I01
sS'count'
p4239
I01
sS'made'
p4240
I01
sS'wise'
p4241
I01
sS'verhoeven'
p4242
I01
sS'whether'
p4243
I01
sS'wish'
p4244
I01
sS'j'
p4245
I01
sS'smooth'
p4246
I01
sS'flip'
p4247
I01
sS'troubl'
p4248
I01
sS'record'
p4249
I01
sS'cruel'
p4250
I01
sS'belov'
p4251
I01
sS'limit'
p4252
I01
sS'hesit'
p4253
I01
sS'glori'
p4254
I01
sS'cake'
p4255
I01
sS'otherwis'
p4256
I01
sS'problem'
p4257
I01
sS'beach'
p4258
I01
sS'display'
p4259
I01
sS'firm'
p4260
I01
sS'irish'
p4261
I01
sS'pin'
p4262
I01
sS'descript'
p4263
I01
sS'dure'
p4264
I01
sS'circus'
p4265
I01
sS'beatl'
p4266
I01
sS'pig'
p4267
I01
sS'twist'
p4268
I01
sS'jenni'
p4269
I01
sS'prostitut'
p4270
I01
sS'dawson'
p4271
I01
sS'penni'
p4272
I01
sS'pit'
p4273
I01
sS'happen'
p4274
I01
sS'probabl'
p4275
I01
sS'spell'
p4276
I01
sS'quot'
p4277
I01
sS'nonetheless'
p4278
I01
sS'boot'
p4279
I01
sS'detail'
p4280
I01
sS'virtual'
p4281
I01
sS'surreal'
p4282
I01
sS'disjoint'
p4283
I01
sS'book'
p4284
I01
sS'futur'
p4285
I01
sS'rememb'
p4286
I01
sS'varieti'
p4287
I01
sS'martial'
p4288
I01
sS'mass'
p4289
I01
sS'behold'
p4290
I01
sS'wing'
p4291
I01
sS'cyborg'
p4292
I01
sS'nelson'
p4293
I01
sS'canada'
p4294
I01
sS'junk'
p4295
I01
sS'repeat'
p4296
I01
sS'star'
p4297
I01
sS'potenti'
p4298
I01
sS'june'
p4299
I01
sS'kapoor'
p4300
I01
sS'stay'
p4301
I01
sS'margaret'
p4302
I01
sS'accomplish'
p4303
I01
sS'stab'
p4304
I01
sS'kinda'
p4305
I01
sS'richardson'
p4306
I01
sS'sandler'
p4307
I01
sS'wannab'
p4308
I01
sS'humbl'
p4309
I01
sS'vein'
p4310
I01
sS'cliff'
p4311
I01
sS'ghost'
p4312
I01
sS'experienc'
p4313
I01
sS'massacr'
p4314
I01
sS'scientif'
p4315
I01
sS'baker'
p4316
I01
sS'martin'
p4317
I01
sS'jewel'
p4318
I01
sS'fest'
p4319
I01
sS'rule'
p4320
I01
sS'portion'
p4321
I01
sS'emerg'
p4322
I01
sS'fifti'
p4323
I01
sS'simpson'
p4324
I01
sS'rural'
p4325
I01
sS'yell'
p4326
I01
sS'defend'
p4327
I01
sS'sincer'
p4328
I01
s.